(dp0
S'title'
p1
VEvernote
p2
sS'description'
p3
S'<p>Evernote is an easy-to-use, free app that helps you remember everything across all of the devices you use. Stay organized, save your ideas and improve productivity. Evernote lets you take notes, capture photos, create to-do lists, record voice reminders--and makes these notes completely searchable, whether you are at home, at work, or on the go. <br/><br/>\xe2\x9c\xa7 New York Times \xe2\x80\x98Top 10 Must-Have App\xe2\x80\x99, Winner: TechCrunch Crunchies, Mashable Awards and the Webbys. \xe2\x9c\xa7  <br/><br/>Key Features:<br/>\xe2\x80\xa2 Sync all of your notes across the computers and devices you use<br/>\xe2\x80\xa2 Create and edit text notes, to-dos and task lists  <br/>\xe2\x80\xa2 Save, sync and share files  <br/>\xe2\x80\xa2 Record voice and audio notes<br/>\xe2\x80\xa2 Search for text inside images<br/>\xe2\x80\xa2 Organize notes by notebooks and tags<br/>\xe2\x80\xa2 Email notes and save tweets to your Evernote account<br/>\xe2\x80\xa2 Connect Evernote to other apps and products you use<br/>\xe2\x80\xa2 Share notes with friends and colleagues via Facebook and Twitter<br/>\xe2\x97\xa6 Premium feature: take notebooks offline to access them anytime <br/>\xe2\x97\xa6 Premium feature: allow others to edit your notebooks<br/>\xe2\x97\xa6 Premium feature: add a PIN lock to your Evernote app<br/><br/>Here are some ways to use Evernote for your personal and professional life:<br/>\xe2\x80\xa2 Research smarter: snap photos of whiteboards and books<br/>\xe2\x80\xa2 Take meeting and class notes, draft agendas and research notes<br/>\xe2\x80\xa2 Plan a trip: keep track of travel plans, plane tickets and passports<br/>\xe2\x80\xa2 Organize and save recipes; search by ingredients later<br/>\xe2\x80\xa2 Create a grocery list or task list and check things off as you go<br/>\xe2\x80\xa2 View web pages saved in Evernote on your desktop<br/>\xe2\x80\xa2 Capture ideas and inspiration on the go<br/>\xe2\x80\xa2 Access files and notes you create on your phone from your desktop<br/>\xe2\x80\xa2 Keep track of products and prices for comparison shopping purposes<br/>\xe2\x80\xa2 Keep finances in order: save receipts, bills and contracts<br/>\xe2\x80\xa2 Reduce paper clutter by taking snapshots of restaurant menus, business cards and labels<br/>\xe2\x80\xa2 Use Evernote as part of your GTD system to help you stay organized<br/>\xe2\x80\xa2 To get the most out of your Evernote experience, download it on all of the computers and phones that you use.<br/><br/>Evernote is available for: Mac, iPhone, iPad, iPod touch and Web<br/>Web clippers available for: Evernote for Web; Web Clippers for Chrome, Safari, Firefox, Internet Explorer<br/><br/>Learn more: http://www.evernote.com/about/getting_started/</p>'
p4
sS'appid'
p5
S'281796108'
p6
s.