(dp0
S'title'
p1
VAIM (Free Edition)
p2
sS'description'
p3
S"<p>AIM is evolving. We've redesigned our app from the ground up to give you the best way to keep in touch with people and groups. Start or join a group chat, share images, voice messages and your location, and continue conversations with your desktop and web clients seamlessly. <br/><br/>Features: <br/>- Chat with a friend or group of friends with the new \xe2\x80\x9cStart a Chat\xe2\x80\x9d button <br/>- Customize your groups with features like add/kick members, edit group icon and mute <br/>- Favorite your friends and group chats for instant access <br/>- Share photos, voice messages and your location without leaving the conversation <br/>- Copy and paste messages <br/>- Tap on location previews in your conversation to get directions <br/>- Tap on icons to quickly view user details or group chat settings <br/>- See your social notifications for activity on your AIM, Twitter, Facebook and Instagram accounts <br/>- Turn on \xe2\x80\x9cDo Not Disturb\xe2\x80\x9d to turn off sounds and push notifications <br/>- Set quiet hours to mute sounds and push notifications for when you don\xe2\x80\x99t want to be disturbed <br/>- Change your incoming message sound in sound settings <br/>- Connect to Facebook Chat and Google Talk in your chat networks settings</p>"
p4
sS'appid'
p5
S'281704574'
p6
s.