(dp0
S'title'
p1
VBible
p2
sS'description'
p3
S'<p>On more than 60 million devices all over the world, people are reading, listening to, and sharing the Bible using the #1 rated Bible App\xe2\x80\x94completely free. Hundreds of Bible versions, hundreds of reading plans, dozens of languages. Add your own highlights, bookmarks, and public or private notes. Customize your experience for easy reading. Access everything when you\xe2\x80\x99re connected, or download specific versions for offline use.<br/><br/>READ THE BIBLE<br/>* Set your Bible App\xe2\x80\x99s interface for your choice of more than 30 languages.<br/>* Easily select from hundreds of Bible versions, in nearly 150 languages.<br/>* Choose from popular versions like the NIV, NASB, ESV, NKJV, NLT, KJV, The Message, and more.<br/>* Offline Bibles: Read even without network access.<br/>* Listen to audio Bibles as you do other tasks. (Audio Bibles not downloadable.)<br/><br/>STUDY THE BIBLE<br/>* Hundreds of reading plans: Devotionals, topical plans, portions of the Bible, or the whole thing.<br/>* Many reading plans are even available in multiple languages.<br/>* You\xe2\x80\x99ll find devotionals, as well as plans that lead you through specific topics, portions of the Bible, or even the entire Bible.<br/>* Search the Bible using keywords.<br/><br/>CUSTOMIZE YOUR BIBLE<br/>* Highlight with custom colors\xe2\x80\x94just like a paper Bible.<br/>* Share verses with friends using social networks, email, or SMS (text).<br/>* Bookmark passages: Share, memorize, or just keep track of your favorites.<br/>* Add notes to passages: Keep them private so only you can see them, or make them public to share with friends.<br/>* With a free YouVersion account, see all of your notes, highlights, bookmarks, and reading plans on any supported device.<br/>* Read easier with settings like fonts, text size, and contrast for bright or low-light conditions.<br/><br/>CONNECT WITH YOUVERSION<br/>* Contact support from directly inside the Bible App.<br/>* Like us on Facebook: http://facebook.com/youversion<br/>* Follow us on Twitter: http://twitter.com/youversion<br/>* Catch up on the latest on our blog: http://blog.youversion.com<br/>* Use YouVersion online: http://bible.com<br/><br/>Download the world\xe2\x80\x99s #1 Bible App now and enjoy the Bible reading experience loved by millions!</p>'
p4
sS'appid'
p5
S'282935706'
p6
s.