(dp0
S'title'
p1
VPandora Radio
p2
sS'description'
p3
S'<p>Pandora Radio is free personalized radio that only plays music you\xe2\x80\x99ll love. Just start with the name of one of your favorite artists, songs or classical composers and Pandora will create a custom "station" that plays similar music.<br/> <br/>Already a Pandora listener? Even easier. Just log in. Pandora on iPhone is fully integrated with Pandora on the web. Enjoy all your existing stations - and create new ones right from youriPhone, iPod Touch or iPad.<br/> <br/>You can also subscribe to Pandora One for $3.99 per month. <br/>Pandora One gives you:<br/>\xe2\x80\xa2 No Ads everywhere you listen to Pandora<br/>Plus the following features on the web:<br/>\xe2\x80\xa2 Higher Quality Audio<br/>\xe2\x80\xa2 Desktop Application<br/>\xe2\x80\xa2 Custom Skins<br/>\xe2\x80\xa2 Fewer Interruptions<br/> <br/>Your Pandora One subscription will automatically renew each month and your credit card will be charged through your iTunes account. You can turn off auto-renew at any time from your iTunes account settings.<br/><br/>SUBSCRIBERS\xe2\x80\x99 AUTOMATIC-RENEWAL FEATURE: Your subscription automatically renews unless auto-renew is turned off at least 24-hours before the end of the current period. Your iTunes account will automatically be charged at the same price for renewal within 24-hours prior to the end of the current monthly period unless you change your subscription preferences in your account settings. You can manage your subscriptions through your Account Settings after purchase. No cancellation of the current subscription is allowed during active subscription period. Please go to www.pandora.com/privacy and pandora.com/legal_apple for more information.</p>'
p4
sS'appid'
p5
S'284035177'
p6
s.