(dp0
S'title'
p1
VMovies by Flixster, with Rotten Tomatoes
p2
sS'description'
p3
S'<p>Movies by Flixster. The #1 app for movie reviews, trailers, and showtimes.<br/>\xe2\x98\x85 The most downloaded movies app of all time<br/>\xe2\x98\x85 Featured in the App Store Essentials Hall of Fame by Apple<br/>\xe2\x98\x85 Best showtimes app for iPhone - Lifehacker.com<br/><br/>\xe2\x9c\x93 Browse the top box office movies and movies opening soon<br/>\xe2\x9c\x93 Look up showtimes at your favorite theater and buy tickets (from participating theaters)<br/>\xe2\x9c\x93 Get critic reviews from Rotten Tomatoes<br/>\xe2\x9c\x93 Watch high quality trailers<br/>\xe2\x9c\x93 Stream and download full-length movies.<br/>\xe2\x9c\x93 Create your own "Want to See" list, rate &amp; review movies<br/>\xe2\x9c\x93 View and manage your Netflix queue</p>'
p4
sS'appid'
p5
S'284235722'
p6
s.