(dp0
S'title'
p1
VNYTimes for iPhone
p2
sS'description'
p3
S'<p>Try a Times Digital Subscription and get your first week free* to enjoy the award-winning journalism of The New York Times with the enhanced NYTimes app for iPhone.<br/><br/>The app is free to download, and all users can access the Top News section.  Subscribers get full access to over 25 sections plus unlimited access to NYTimes.com on any device, with a Times Digital subscription.**<br/><br/>Enjoy world-class multimedia with video and slide shows located within articles and in the Video and Photos sections. Save articles to revisit later from any device, and add your favorite blogs to your section list so that they are always updated and easily accessible. Share articles, photos and videos through Facebook, Twitter and e-mail. And, get breaking news alerts to be the first to read about events as soon as they occur. <br/><br/>The NYTimes app for iPhone is now available within Newsstand for automatic early morning content updates. <br/><br/>Your subscription options: <br/>\xe2\x80\xa2 NYTimes.com + Smartphone Apps for $14.99 per month <br/>\xe2\x80\xa2 All Digital Access (including the NYTimes app for iPhone and iPad, plus unlimited access to NYTimes.com) for $34.99 per month. <br/><br/>Your subscription will automatically renew each month and your credit card will be charged through your iTunes account. You can turn off auto-renew at any time from your iTunes account settings. <br/><br/>If you have any problems, comments or suggestions for improving our app, please contact us at iphone@nytimes.com, call 1-800-591-9233, or find us at @NYTimesMobile on Twitter and we will do our best to assist you. Your feedback is important to us. <br/><br/>* Introductory offer only valid for first-time subscribers.  Offer valid once per user.<br/>** Does not include Premium Crosswords or The New York Times Crosswords apps. Other restrictions apply.</p>'
p4
sS'appid'
p5
S'284862083'
p6
s.