(dp0
S'title'
p1
VSCRABBLE
p2
sS'description'
p3
S'<p>** Welcome to the all-new SCRABBLE! With crisper graphics, faster load times, and improved chat  \xe2\x80\x93 it\xe2\x80\x99s never been easier (or more fun) to connect and play SCRABBLE with friends! **<br/><br/>CONNECT WITH FRIENDS. PLAY WITH WORDS. Get a game of SCRABBLE going with just about anyone! The original word game you know and love is now better than ever. <br/><br/>WHO WILL YOU PLAY?<br/>\xe2\x80\xa2 Challenge friends via Facebook and more<br/>\xe2\x80\xa2 Find an instant opponent with a single touch <br/>\xe2\x80\xa2 Play solo against the computer<br/>\xe2\x80\xa2 Get up to 50 games going at once \xe2\x80\x93 more than any word game on the App Store<br/><br/>SHOW OFF YOUR SKILLS <br/>Connect to Facebook and share your best scores. You can even talk a good game with enhanced chat and notification features.<br/><br/>IMPROVE YOUR SCORES WITH THE TEACHER<br/>Become a SCRABBLE master with the exclusive \xe2\x80\x9cTeacher\xe2\x80\x9d feature - see what your best word could have been after every turn.<br/><br/>LOSS FOR WORDS?<br/>Use the in-game word list, built-in official SCRABBLE dictionary, or the exclusive Best Word feature to see your highest scoring choices.<br/><br/>LOOK SHARP!<br/>View every detail on the board with HD-quality graphics made to maximize the Retina display.<br/><br/>Ready for the first and last word in word games? Don\xe2\x80\x99t accept imitations. Just say, \xe2\x80\x9cLET\xe2\x80\x99S PLAY SCRABBLE!\xe2\x80\x9d<br/></p>'
p4
sS'appid'
p5
S'284815117'
p6
s.