(dp0
S'title'
p1
VFacebook
p2
sS'description'
p3
S'<p>Keeping up with friends is faster than ever.<br/>\xe2\x80\xa2 See what friends are up to<br/>\xe2\x80\xa2 Share updates, photos and videos<br/>\xe2\x80\xa2 Get notified when friends like and comment on your posts<br/>\xe2\x80\xa2 Text, chat and have group conversations<br/>\xe2\x80\xa2 Play games and use your favorite apps<br/><br/>Facebook is only available for users age 13 and over.<br/>Our Data Use Policy and EULA are available in the legal section of our App Store description.</p>'
p4
sS'appid'
p5
S'284882215'
p6
s.