(dp0
S'title'
p1
VYelp
p2
sS'description'
p3
S"<p>Looking for a burrito joint open now?  An Irish pub nearby?  A gas station you can drive to before your tank hits empty?  Yelp for your iPhone or iPad is here to help.  Use us to search for places to eat, shop, drink, relax and play then read reviews from an active community of locals in the know.   <br/><br/>FEATURES:<br/>\xe2\x98\x85 Search for businesses near you <br/>\xe2\x98\x85 Tap quick links to find nearby bars, restaurants, cafes and more<br/>\xe2\x98\x85 Narrow your searches by 'hood, distance, price, and what's open now<br/>\xe2\x98\x85 Browse reviews to read what's great (and not so great) in your city<br/>\xe2\x98\x85 Find great Deals offered by your favorite local businesses on iPhone<br/>\xe2\x98\x85 Add tips, photos, and draft reviews for your favorite businesses<br/>\xe2\x98\x85 Check-in and share on Facebook and Twitter<br/>\xe2\x98\x85 Make reservations on OpenTable without leaving the Yelp app<br/>\xe2\x98\x85 Look up addresses and phone numbers for thousands of businesses, then call or map them from your iPhone or iPad<br/>\xe2\x98\x85 Yelp does augmented reality with Monocle. Overlay business information onto the world around you.</p>"
p4
sS'appid'
p5
S'284910350'
p6
s.