(dp0
S'title'
p1
VPageonce \u2013 Money & Bills
p2
sS'description'
p3
S'<p>Never miss a bill payment again \xe2\x80\x93 pay &amp; track all your bills for FREE (limited time only)! Get bill reminders and see your bank, credit cards &amp; investments - in one simple place. Award-winning &amp; trusted by over 7 million people!<br/><br/>\xe2\x98\x85 "Cadillac of money management apps" \xe2\x80\x93 CNN Money (May 2012)<br/>\xe2\x98\x85 iTunes Staff Favorite (Nov 2011) <br/>\xe2\x98\x85 PC Magazine: The 100 Best iPhone Apps (2011) <br/>\xe2\x98\x85 iTunes App Store Essential (Nov 2011) <br/>\xe2\x98\x85 iTunes App Starter Kit (Nov 2011) <br/>\xe2\x98\x85 Best of 2010 &amp; 2011, App Store Rewind<br/><br/>Get a high-level overview of all your bills, bank account balances, and credit cards - or drill down to see due dates, transactions, and even pay your bills \xe2\x80\x93 all from one simple place.  Get real-time alerts and reminders about upcoming bills that are due, overage charges, suspicious transactions, and more.<br/><br/><br/>With Pageonce, you can...<br/>\xe2\x80\xa2 Manage your money in one secure place<br/>\xe2\x80\xa2 Track your spending and see where you can save<br/>\xe2\x80\xa2 Pay your credit card, utility, cable, cell phone, and other bills on the go<br/>\xe2\x80\xa2 Avoid late fees \xe2\x80\x93 get reminders when bills are due<br/>\xe2\x80\xa2 Monitor your credit cards, bank accounts, and investment activity<br/>\xe2\x80\xa2 View account details &amp; transaction history<br/>\xe2\x80\xa2 Get helpful alerts regarding fees, low balances, unusual activity, &amp; more<br/>\xe2\x80\xa2 Add an unlimited number of accounts for maximum control<br/>\xe2\x80\xa2 Select from over 6,000 providers \xe2\x80\x93 we add more each week<br/>\xe2\x80\xa2 Access your account from anywhere \xe2\x80\x93 your iPhone/iPad or on the web<br/><br/><br/>It\xe2\x80\x99s easy to get started<br/>1. Download Pageonce \xe2\x80\x93 it\xe2\x80\x99s free!<br/>2. Securely connect your accounts and get reminders &amp; alerts<br/>3. Pay your bills and track your money from one simple, secure place<br/><br/><br/>Pageonce is safe and secure:<br/>Pageonce adheres to the highest standards in security in order to keep your account safe and secure. We meet the toughest requirements set by the most reputable security organizations out there, like Trust-e, VeriSign and McAfee. Pageonce is dedicated to providing you a great service, with the peace of mind that your account is safe and secure. Even more, if you lose your iPhone or iPad, simply log-in to the Pageonce website and deactivate access from your device(s).</p>'
p4
sS'appid'
p5
S'285056092'
p6
s.