(dp0
S'title'
p1
VYahoo! Sportacular
p2
sS'description'
p3
S'<p>Fast, personalized and easy access to live scores and information on your favorite teams, players, and leagues. Includes free game alerts, the latest news from Yahoo! Sports plus much more.<br/><br/>\xe2\x80\xa2 Customize your alerts and get instant reminders for specific events, like game start, scoring plays, red-zone or close game situations<br/><br/>\xe2\x80\xa2 Fan check-in lets you mark your location as your team\xe2\x80\x99s turf and start a battle with rivals<br/><br/>\xe2\x80\xa2 Get coverage of sports action from MLB, NBA, NHL, NFL, MLS, NCAA, NASCAR and more<br/><br/>\xe2\x80\xa2 Get coverage of Soccer and Futbol games, including action from English Premiership, Spanish La Liga, Italian Serie A and German Bundesliga<br/><br/>**********************************************************<br/><br/>Sportacular is the trademark or registered trademark of Citizen Sports and Yahoo! Inc. All other trademarks are the property of their respective owners.</p>'
p4
sS'appid'
p5
S'286058814'
p6
s.