(dp0
S'title'
p1
VDiner Dash Deluxe
p2
sS'description'
p3
S'<p>\xe2\x98\x85  Get the high-flying Zesty Zeppelin restaurant for FREE in this special Deluxe edition of Diner Dash.<br/>\xe2\x98\x85 Play the hit game that first launched the Dash craze! With over 20 million downloads to date, Dash is one of the biggest gaming franchises ever on the iPhone and iPad. <br/>\xe2\x98\x85 \xe2\x80\x9cIn the casual gaming world, Diner Dash is like the Harry Potter books. Its influence is irrefutable.\xe2\x80\x9d \xe2\x80\x93 Macworld <br/><br/>Serve up fun in this chart-topping hit game! Help Flo, a spunky entrepreneur, grow her signature diner from a greasy spoon to a five-star joint.  Delight eager customers by seating, serving, and clearing tables quickly to earn big tips. Soothe impatient guests before they get angry and skip out on the bill. Tap and slide your way to the top of the restaurant ladder in this worldwide hit game! <br/><br/>Game Features: <br/>* Get hours of fast-paced fun with tons of challenging levels!<br/>* Enjoy Diner Dash Deluxe on your iPhone and iPad.<br/>* Serve fun and quirky guests including business women, vampires, and more!<br/>* Explore 6 colorful themed restaurants, including the FREE Zesty Zeppelin.<br/>* Shop the Dash Mart for boosts and upgrades to help you get expert scores.<br/>* Unlock exclusive additional restaurants, including the Courtyard Cafe and Undersea Adventure, through in-App purchase.<br/>* Show off your scores and achievements with GameCenter.<br/><br/>Love Diner Dash Deluxe? Try our other addictive games, including DinerTown Zoo, Hotel Dash, Wedding Dash and Cooking Dash. You\xe2\x80\x99re guaranteed to see familiar faces that you know and love.<br/> <br/>*******************<br/>Want more from PlayFirst?<br/> <br/>Facebook:<br/>http://www.facebook.com/dinerdash<br/> <br/>Twitter: @dinerdash<br/> <br/>Blog:<br/>http://blog.playfirst.com<br/> <br/>Website:<br/>www.playfirst.com<br/>*******************</p>'
p4
sS'appid'
p5
S'289530584'
p6
s.