(dp0
S'title'
p1
VAroundMe
p2
sS'description'
p3
S"<p>AroundMe allows you to quickly find out information about your surroundings.<br/><br/>How many times have you found yourself in need of finding the closest Gas Station?<br/><br/>AroundMe quickly identifies your position and allows you to choose the nearest Bank, Bar, Gas Station, Hospital, Hotel, Movie Theatre, Restaurant, Supermarket, Theatre and Taxi.<br/>AroundMe shows you a complete list of all the businesses in the category you have tapped on along with the distance from where you are.<br/><br/>For every listing you can choose to see its location on a Map, view the route from where you are, add the information to your contact list or even email the information to a friend.<br/>The Nearby listing allows you to find information using Wikipedia about what is around you.<br/><br/>Fast, easy and accurate. AroundMe is your ideal day to day companion.<br/><br/>PLEASE NOTE: If you own an iPod touch remember that it doesn't have a built in GPS and therefore it cannot locate your position accurately.</p>"
p4
sS'appid'
p5
S'290051590'
p6
s.