(dp0
S'title'
p1
VScoops - Ice Cream Fun For Everyone
p2
sS'description'
p3
S'<p>Over a million people are screaming for ice cream!<br/>Stack your ice cream cone high into the sky by tilting the phone left and right, catching as many scoops as you can while avoiding the vegetables (veggies ARE great apart from icecream!). The higher you go, the faster they fall, and the more wobbly your tower! Stack similar colors together for extra points. <br/><br/>Can you stack your cone past the MOON? Throw on some tunes in iPod, and start stacking! Scoops is fun for kids and adults alike, everyone in the family can take a turn.<br/><br/>Features:<br/>- 13 challenging awards<br/>- 7 worldwide leaderboards<br/>- 6 visual themes<br/>- 5 fun Plus+ avatars</p>'
p4
sS'appid'
p5
S'291591378'
p6
s.