(dp0
S'title'
p1
VMapMyRUN GPS Running
p2
sS'description'
p3
S"<p>\xe2\x98\x85 Top-rated app! \xe2\x98\x85<br/><br/>Simple to use, for all ages and ability levels. <br/><br/>\xe2\x98\x85\xe2\x98\x85 Winner of the Best Running App 2012 Reader's Choice at About.com. \xe2\x98\x85\xe2\x98\x85<br/><br/>Run and Workout Tracking and Logging:<br/>\xe2\x8a\x95 Pace<br/>\xe2\x8a\x95 Live Route Map<br/>\xe2\x8a\x95 Distance<br/>\xe2\x8a\x95 Calories<br/>\xe2\x8a\x95 Elevation<br/>\xe2\x8a\x95 Nutrition<br/>\xe2\x8a\x95 Friends (live map, and activity feed)<br/>\xe2\x8a\x95 Stats (Heart Rate - requires purchase of accessory)<br/><br/>\xe2\x8a\x95 Voice prompts give you updates on your progress as you go!<br/><br/>Bragging (optional!):<br/>\xe2\x8a\x95 Post your runs and records to Facebook and Twitter<br/><br/>All of your info syncs securely with your free account on www.MapMyRUN.com.<br/><br/>Head to www.MapMyRUN.com to:<br/><br/>\xe2\x8a\x95 Search our database of over 26 million routes to discover new places to run anywhere in the world.<br/><br/>\xe2\x8a\x95 Join sponsored challenges and WIN PRIZES (i.e. trips and shoes) just for running.<br/><br/>\xe2\x8a\x95 Connect with our community of over 9 million fitness enthusiasts.<br/><br/>Tips:<br/><br/>\xe2\x8a\x95 Turn off wifi before you start, to improve battery life and GPS accuracy.<br/><br/>\xe2\x99\xac Play music!  This app keeps tracking your run in the background, so you can play your iPod, run Pandora or your favorite music app simultaneously. \xe2\x99\xac<br/><br/>NOTE: Continued use of GPS running in the background can dramatically decrease battery life.<br/><br/>Be sure to visit us at www.MapMyRUN.com for the full experience.</p>"
p4
sS'appid'
p5
S'291890420'
p6
s.