(dp0
S'title'
p1
VLIVESTRONG.COM - Calorie Tracker - Your Diet and Fitness Calorie Counter for Better Health
p2
sS'description'
p3
S"<p>Calorie Tracker - Diet and Fitness Tracker.<br/><br/>Join over 4 million members who have lost weight using LIVESTRONG.COM's MyPlate calorie counter application.<br/><br/>The LIVESTRONG.COM Calorie Tracker can help you reach your diet, weight loss and fitness goals by tracking your daily calories and exercise. Lose weight easily by setting your weight goals and track your calories and progress with our comprehensive online food journal containing over 1 Million food and fitness items. Tracking works. You will lose weight like millions of other members. <br/><br/>The Calorie Tracker tracks your daily caloric, fat, carbohydrate and protein intake with the click of a button. You will have access to MyPlate at LIVESTRONG.COM, which offers a comprehensive nutrition database of more than 1.3 million food and restaurant items. Most major competitors only have 7,000 items in their database.<br/><br/>You can also find and track the amount of calories you can burn in our database of exercises and activities. Caloric burn is calculated based personally on your measurements. <br/><br/>Whether you want to lose, maintain or gain weight, the LIVESTRONG.COM Calorie Tracker will help you achieve your diet and nutritional goals.<br/><br/>This application is a companion tool for members of MyPlate at LIVESTRONG.COM. There is also a free service online. www.livestrong.com/thedailyplate<br/><br/>Additional online features include support groups, forums on a variety of topics and expert Q&amp;A.<br/><br/>The LIVESTRONG.COM Calorie Tracker offers:<br/><br/> \xe2\x80\xa2 Easy to use interface for tracking<br/> \xe2\x80\xa2 The largest database of food and restaurant items<br/> \xe2\x80\xa2 Personalized daily calorie intake based on your goals<br/> \xe2\x80\xa2 Weight tracking with easy to read progress chart<br/> \xe2\x80\xa2 Motivational community that will inspire you to stick with your goals<br/> \xe2\x80\xa2 Water tracking to help you ensure you are staying hydrated<br/> \xe2\x80\xa2 Daily reminders to keep you on track to hitting your weight goal<br/> \xe2\x80\xa2 Full support for use on iPhone and iPad<br/> \xe2\x80\xa2 Track anywhere and anytime and sync to the website when you\xe2\x80\x99re online.  Log your food and fitness from your computer or your phone.<br/><br/><br/>The LIVESTRONG.COM Calorie Tracker is a diet coach, nutritionist, calorie counter and food planner at your fingertips.<br/><br/>http://www.livestrong.com/thedailyplate<br/><br/>For any questions or help with the application, check out our support forum: <br/><br/>http://www.livestrong.com/forums/viewforum.php?f=26<br/><br/>LIVESTRONG.COM inspires and empowers people to achieve their daily goals around living healthy. The site connects visitors with useful tools, trustworthy information and a passionate, engaged community of likeminded people, who are willing to share their experiences. For additional information about LIVESTRONG.COM, please visit: www.livestrong.com</p>"
p4
sS'appid'
p5
S'295305241'
p6
s.