(dp0
S'title'
p1
VTapDefense
p2
sS'description'
p3
S'<p>Nominated one of the top free apps and top free games on the bestappever 2008 awards.<br/><br/>"TapDefense is a great game" -- The Guardian<br/><br/>"One of the Best iphone games" --  Brighthub.com<br/><br/>Defend the Gates of Heaven from the enemies of Hell with an incredibly fun mobile TOWER DEFENSE game on your iPhone or iPod Touch.<br/><br/>TapJoy is proud to bring you TapDefense -- a new TOWER DEFENSE strategy game that you can take you with you all day long. Play for hours or salvage snippets of time on the go.<br/><br/>Enjoy an ever improving experience through free content updates!<br/><br/>Challenge yourself and your friends by competing to master all levels and obtain high scores.<br/><br/>-42 levels!<br/>-6 towers types!<br/>-7 enemy types!<br/>-6 different game modes<br/><br/>-much more ...<br/><br/>Do you have what it takes to fend off the evil enemies of Hell and rise to the top as supreme Tower Defense master?</p>'
p4
sS'appid'
p5
S'297558390'
p6
s.