(dp0
S'title'
p1
VAccuWeather for iPhone
p2
sS'description'
p3
S'<p>Voted \xe2\x80\x9cBest iPhone App\xe2\x80\x9d by the 2012 Mobie awards, AccuWeather for iPhone is free and users tell us it is their \xe2\x80\x9cGo-to weather app.\xe2\x80\x9d From what to wear to how to travel, they say they, \xe2\x80\x9cCan\xe2\x80\x99t live without it,\xe2\x80\x9d and it is, \xe2\x80\x9cBetter than any other.\xe2\x80\x9d<br/><br/><br/>Weatherproof your day with these popular features:<br/><br/>- iCloud Support: Settings and saved locations sync to other AccuWeather apps. <br/><br/>- Notification Center Support: View today\xe2\x80\x99s weather forecast in the Notification Center.<br/><br/>- Calendar Integration: View the 15-day weather forecast right in your calendar.<br/><br/>- Social Sharing: Share weather information with friends and family through Facebook, Twitter, and email.<br/><br/>- Contact Location Viewing: Pin some or all of your contacts to the radar map to see the current weather conditions in their location. <br/><br/><br/>You also get the accurate, local weather forecasts you expect from AccuWeather:<br/><br/>- Hourly and 15 day weather forecasts for 2.7 million locations worldwide. <br/><br/>- Animated radar and satellite, videos, and interactive Google\xe2\x84\xa2 maps.<br/><br/>- Alerts for severe weather storms, such as snow and ice, rain and thunderstorms, high wind, and tornadoes.<br/><br/>- Special lifestyle weather and health forecasts, including conditions for outdoor activities, such as dog walking, lawn mowing, and golfing, and health-related weather forecasts, such as the UV forecast and weather conditions for people suffering from allergies.<br/><br/><br/>See all of these features and more in the AccuWeather for iPhone promo video (http://www.youtube.com/watch?v=I1Yogjdx3GQ).<br/><br/><br/>Download AccuWeather for iPhone for free and start experiencing the most accurate and local weather forecasts available!</p>'
p4
sS'appid'
p5
S'300048137'
p6
s.