(dp0
S'title'
p1
VMint.com Personal Finance
p2
sS'description'
p3
S"<p>ACCOLADES - See why over 10 million people trust Mint. <br/>\xe2\x80\xa2 Lifehacker, Best Mobile Personal Finance Tool (Jan 2012)<br/>\xe2\x80\xa2 App Store Rewind, Best in iPad Finance (Dec 2011)<br/>\xe2\x80\xa2 PC Magazine Editor's Choice (Nov 2011)<br/>\xe2\x80\xa2 Kiplinger\xe2\x80\x99s Must-Have Money Apps (Winter Issue, 2011)<br/>\xe2\x80\xa2 Featured in iTunes Apps Starter Kit (Oct 2011)<br/>\xe2\x80\xa2 TIME Magazine\xe2\x80\x99s 50 Best iPhone Apps (Jan 2011)<br/>\xe2\x80\xa2 The New York Times \xe2\x80\x94 \xe2\x80\x9cYour Financial Situation, in the Palm of Your Hand\xe2\x80\x9d (Apr 2010)<br/><br/>THE BEST FREE WAY TO MANAGE YOUR MONEY<br/>Mint.com allows you to track, budget and manage your money all in one place, so you can see where you\xe2\x80\x99re spending and where you can save. Open an account, add your bank, credit, loan and retirement accounts and Mint will automatically pull in and categorize your transactions. It\xe2\x80\x99s safe, secure and easy to keep your personal finances organized.  <br/><br/>MANAGE YOUR MONEY WHEREVER YOU ARE<br/>\xe2\x80\xa2 View all of your accounts including: checking, savings, credit cards, investments, and retirement.<br/>\xe2\x80\xa2 Mint automatically pulls in and categorizes your transactions. No need to enter your own transactions.<br/>\xe2\x80\xa2 Easy-to-understand graphs show you where your money is going so you get a clear picture of your spending and your net worth. (iPad only)<br/>\xe2\x80\xa2 Know how much you have left to spend. Mint creates a customized budget based on your actual spending.<br/>\xe2\x80\xa2 Add manual transactions at the time of purchase so you can track cash spending.<br/>\xe2\x80\xa2 Avoid late fees and monitor cash flow \xe2\x80\x94 get bill reminders, alerts and advice sent right to your device.<br/>\xe2\x80\xa2 View your data even without a wireless connection. (iPad only)<br/><br/>SAFE AND SECURE<br/>Your app is passcode protected with a unique 4-digit PIN. If you lose your device, or even temporarily misplace it, simply deactivate mobile access from your Mint.com profile page. With one click, prevent unauthorized access to Mint on your iPad or iPhone.<br/><br/>SYNCS WITH MINT.COM ON WEB AND MOBILE<br/>Always have access to your account from your iPad, iPhone and the Web. Your information automatically syncs across devices, so you have your latest information at your fingertips.<br/><br/>To learn how Intuit protects your privacy, please visit https://www.mint.com/how-it-works/security/policy/</p>"
p4
sS'appid'
p5
S'300238550'
p6
s.