(dp0
S'title'
p1
ViGun Pro\u2122 - The Original Gun Application
p2
sS'description'
p3
S"<p>\xe2\x98\x86\xe2\x98\x86\xe2\x98\x86 THANK YOU FOR MAKING US THE #1 RATED GUN SIMULATOR AND ENCYCLOPEDIA ON THE APP-STORE  \xe2\x98\x86\xe2\x98\x86\xe2\x98\x86<br/><br/>Don't settle for cheap imitations. Get the Original Gun Application<br/><br/>iGun Pro lets you do everything from virtually reload, chamber, and fire your favorite guns, to learning about their history and specifications. From the amazing graphics to the smallest details and accuracy, you will not find a higher quality gun application on the AppStore.<br/><br/>Features:<br/>\xe2\x80\xa2 A huge library of over 100 guns with more always being added.<br/>\xe2\x80\xa2 Customizable gun wall. Lay your guns out how you want them, on the ever expanding gun wall.<br/>\xe2\x80\xa2 Ultra-Realistic gun simulation including both motion blur and smoke<br/>\xe2\x80\xa2 Customize your shooting experience with adjustable recoil, motion blur, and slow motion<br/>\xe2\x80\xa2 See the full specifications sheet for each of the guns included in iGun Pro<br/>\xe2\x80\xa2 Over 35 Updates already with no end in sight. New guns and features are always being added<br/>\xe2\x80\xa2 Developers who are always listening for what you want next! Give us feedback on our Facebook page at www.facebook.com/iGunPro<br/><br/>A Small Sample of Guns Included in iGun Pro:<br/>P90, UZI, Desert Eagle, MP5, M4, ACR, PPSh-41, M82A1 (Barret 50 Cal), Thomson, XD9 , AK-47, SVT 40, SAW, Browning Machine Gun, FN SCAR-H, GLOCK 18, M1 GARAND, M1911, MP40, AA-12 Automatic Shotgun, ACR + Many More!  We are up to over 100 Guns Total!<br/><br/>iGun Pro, the iGun Pro logo, Crimson Moon Entertainment, and the Crimson Moon Entertainment logo are all trademarks of Crimson Moon Entertainment LLC and may not be used without explicit written permission. <br/><br/>Special Thanks to Mike Killebrew for his contributions.</p>"
p4
sS'appid'
p5
S'301517052'
p6
s.