(dp0
S'title'
p1
VSkout - Meet, Chat, Friend
p2
sS'description'
p3
S'<p>Skout is the global network for meeting new people.<br/><br/>Instantly meet people near you or around the world. Discover new friends at a local bar or in Barcelona. Millions of people are connecting and meeting through Skout every day. Use exciting in-app features to increase your chances of friending or chatting!<br/> <br/>Expand your social network with the tap of a button. It\xe2\x80\x99s so much fun, you won\xe2\x80\x99t be able to stop. Start Skouting and find your party, make new friends, or meet new people, anytime, anywhere. <br/><br/>Features: Meet people by preference and proximity, chat, see who checked you out, get updates from nearby users, buy and send gifts, save your favorite users, browse profiles and pictures, promote your profile with in-app features, earn points to unlock premium features.<br/><br/>Download and join the Skout party now!<br/><br/>Please note: We take your privacy very seriously. You\xe2\x80\x99re always in complete control \xe2\x80\x93 your exact location and personal information will never be given without your permission. YOU decide if, when, and how you want to connect.</p>'
p4
sS'appid'
p5
S'302324249'
p6
s.