(dp0
S'title'
p1
VSkype
p2
sS'description'
p3
S'<p>Call, video call and instant message anyone else on Skype for free with Skype for your iPhone or iPod touch.<br/><br/>Plus call and text your Contacts (or any other number) at Skype\xe2\x80\x99s low rates. It\xe2\x80\x99s great value with Skype Credit.<br/><br/>Skype for iPhone, iPod touch and iPad is free to download and works over 3G* or Wi-Fi.<br/><br/>*** We now have an optimized-for-iPad app in the AppStore. \xc2\xa0Download "Skype for iPad". ***<br/><br/>\xe2\x80\xa2Share moments over free* video calls with front and rear-facing cameras:<br/>Enjoy video calls with Skype contacts on, iPhone, iPod touch or iPad, compatible mobiles, PCs, Macs or Skype-enabled TVs.<br/><br/>\xe2\x80\xa2Call Skype-to-Skype, wherever you are:<br/>Call Skype contacts for free on 3G* or Wi-Fi.<br/><br/>\xe2\x80\xa2Save on calls to Contacts or any phone number:<br/>Text and call phones anywhere with Skype Credit. It\xe2\x80\x99s especially good value to international numbers.<br/><br/>\xe2\x80\xa2Send free* instant messages for an instant response:<br/>Message friends, wherever, and whenever the mood strikes. <br/><br/>\xe2\x80\xa2Near CD quality sound for Skype-to-Skype calls:<br/>Enjoy wideband audio (SILK codec) on iPhone 4S, iPhone 4, iPhone 3GS, iPad and 3rd generation iPod touch.<br/><br/>*Operator data charges may apply <br/><br/>SYSTEM REQUIREMENTS: <br/><br/>* iOS 4.3 or above.<br/>* Send and receive video using front or rear camera on iPhone 4 and iPod touch 4th Generation.<br/>* Send and receive video using rear camera on iPhone 3GS.<br/>* Receive video only on iPad 1st generation and iPod touch 3rd Generation.<br/>* Works with any H264 compatible devices, including TVs.<br/><br/>This version works on iPhone 3GS, iPhone 4, iPhone 4S, iPad and iPod touch.</p>'
p4
sS'appid'
p5
S'304878510'
p6
s.