(dp0
S'title'
p1
VTumblr
p2
sS'description'
p3
S'<p>Follow the world\xe2\x80\x99s creators.<br/><br/>- Post anything: Share photos, video, quotes, chats, links, and text.<br/>- Multiple blogs: Seamlessly manage all of your blogs.<br/>- Advanced controls: Save drafts, queue posts, and more!<br/>- Messages: View and reply to messages.<br/>- Easy camera access: Swipe the compose button up!<br/>- Offline support: Post, like, reply, and reblog even when you\xe2\x80\x99re not connected!</p>'
p4
sS'appid'
p5
S'305343404'
p6
s.