(dp0
S'title'
p1
VBump
p2
sS'description'
p3
S'<p>NEW: Bump photos from your phone to your computer!  Just go to http://bu.mp on your computer web browser.<br/><br/>Use Bump\xe2\x84\xa2 to share contact information and photos by simply bumping two phones together. Just open Bump, hold your phones, and gently bump your hands together -- Bump will magically do all the rest. <br/><br/>\xe2\x80\xa2 SHARE CONTACTS: Share your contact info; connect on Facebook, Twitter, and LinkedIn <br/>\xe2\x80\xa2 SHARE PHOTOS: Share photos with friends and family <br/>\xe2\x80\xa2 FIND MUTUAL FRIENDS: Find friends in common with people you bump from your social networks and phone contacts <br/>\xe2\x80\xa2 SYNC DEVICES: Move contacts and photos between devices<br/><br/>Use Bump with all your friends! More than 90 million downloads. <br/><br/>Bump works cross-platform on iPhone, iPod, iPad, and most other modern mobile phones.</p>'
p4
sS'appid'
p5
S'305479724'
p6
s.