(dp0
S'title'
p1
VFoursquare
p2
sS'description'
p3
S"<p>Heading out? Foursquare helps you and your friends make the most of where you are. Join the over 25 million people who are already on Foursquare and download the free app now.<br/><br/>\xe2\x9c\x93 Share and record the places you visit.<br/>\xe2\x9c\x93 Get personalized recommendations and deals based on where you, your friends and people with your tastes have been.<br/>\xe2\x9c\x93 Search for anything (from 'free wi-fi' to \xe2\x80\x98dumplings\xe2\x80\x99) or browse popular categories.<br/>\xe2\x9c\x93 Discover insider tips and lists from local experts, brands, and celebrities.<br/><br/>Get started today!</p>"
p4
sS'appid'
p5
S'306934924'
p6
s.