(dp0
S'title'
p1
VThe Oregon Trail
p2
sS'description'
p3
S'<p>Embark on Gameloft\'s refreshing revisit of the classic game you used to play on Apple II now.<br/>The press already love it. You\xe2\x80\x99ll love it too.<br/><br/>**IGN: 8,5/10 + Editors\'s Choice Award: \xe2\x80\x9cA smart remake of the acclaimed classic, complete with fantastic new visuals. You\'ll jam on it for weeks."<br/>**Pocket Gamer: 9/10 + Gold Award - "An example of how classic games can be remade for modern play without losing nostalgic lustre or alienating with outdated design"<br/>**Touch Arcade: \xe2\x80\x9cThe Oregon Trail for iPhone really does seem to make dysentary fun again!\xe2\x80\x9d<br/>**TapCritic: 5/5<br/>**148Apps: 4,5/5<br/><br/>---------------------<br/><br/>Westward, Ho! Your favorite pioneering adventure game is back and takes you to an exciting, historical side-scrolling adventure entirely rethought to fit the Touch experience of your iPhone / iPod touch.<br/><br/>REMEMBER AMERICA\xe2\x80\x99S CULTURAL ICONIC GAME<br/>- All of the decision-making and problem-solving fun of the original game.<br/>- Prepare for your departure: Select the members of your party, choose your departure date and purchase supplies.<br/>- Fun and educational! Historical references through real locations and famous characters from the past, plus historic facts perfectly explain the perilous journey of pioneers.<br/><br/>A WILDER EXPERIENCE THAN YOU\'VE EVER PLAYED BEFORE<br/>- 8 skill-based mini-games, including 2 accelerometer-based challenges: hunting, fishing, river crossing, rafting, wagon repairing, telegraph, berry picking, and gold panning.<br/>- Random events (disease, bandits, hitchhikers, etc.) faced by real pioneers increases the challenge.<br/>- Side-missions add more excitement to your journey, affecting your westward trek.<br/>- Refreshed with modern, colored graphics in a cartoonish style.<br/><br/>UPDATED WITH FACEBOOK CONNECT<br/>- Post your achievements on your Wall.<br/>- Challenge your friends by inviting them to play The Oregon Trail with the Tell A Friend feature.<br/><br/>JOIN THE FAN COMMUNITY<br/>- On Facebook at www.facebook.com/TheOregonTrail.<br/>- On Twitter at twitter.com/TheOregonTrail.<br/><br/>Highly recommended for fans of retro gaming, edutainment, educational games, and strategy.</p>'
p4
sS'appid'
p5
S'307519882'
p6
s.