(dp0
S'title'
p1
VDoodle Jump
p2
sS'description'
p3
S'<p>NOW OPTIMIZED FOR iPhone 5!!!  <br/><br/>BE WARNED: Insanely addictive!<br/>"possibly the best iPhone game ever created"  - Touch Arcade<br/><br/>From prime-time sitcoms (BIG BANG THEORY) to late night TV (JIMMY FALLON) to a fashion accessory for pop stars (LADY GAGA), Doodle Jump is EVERYWHERE! It\'s a cultural craze, a hot new trend!<br/><br/><br/>iTunes reviews (US) <br/>****<br/>"I just got dumped cuz I wouldn\'t put this game down! And I just kept playing while she walked away... ITS THAT GOOD!"<br/><br/>"Somehow it\'s better than sleep for me. I am sick, sleep deprived, and achy, and yet I cannot put it down"<br/><br/>"Coming from someone who owns a PS3, Wii, and Xbox 360, I play this game more!! This game is amazing!!"<br/><br/><br/>Media reviews:<br/>****<br/>"Doodle Jump is a perfect micro-game, insanely addictive, and deliciously replayable. Go get it."  -  MacWorld.com<br/><br/>"the most addicting iPhone game yet?" -GIZMODO<br/><br/>"...the king of casual games on the App Store ...tons of updates and lots and lots of gameplay in a super simple and accessible package." - TUAW<br/><br/><br/>So, what is it? <br/>****<br/>In Doodle Jump, you guide Doodle the Doodler\xe2\x80\x94using some of the most subtle and accurate tilt controls in existence\xe2\x80\x94on a springy journey up, up, up a sheet of graph paper, picking up jet packs, avoiding black holes, and blasting baddies with nose balls along the way.<br/><br/>Laugh with delight as Doodle\xe2\x84\xa2 blows past other players\' actual score markers scribbled in the margins. And be warned: this game is insanely addictive.<br/><br/><br/>FEATURES:<br/>- 11 incredible worlds + 3 SECRET easter eggs<br/>- broken, moving, disappearing, moveable, and EXPLODING platforms<br/>- JET PACKs, PROPELLER HATS, ROCKETS, and springs that fly you higher<br/>- UFOs, black holes, monsters, bear traps!<br/>- jump on monsters to bring them down MARIO-style<br/>- Submit score to Facebook &amp; Twitter<br/>- Compete agains friends!<br/>- Global leaderboards, achievements!<br/><br/>How to play:<br/>Tilt to move left or right, tap the screen to shoot.<br/><br/>-----------------------------<br/>*Please don\'t Doodle Jump and drive, and BE WARNED: Doodle Jump is Insanely Addictive!<br/></p>'
p4
sS'appid'
p5
S'307727765'
p6
s.