(dp0
S'title'
p1
VFandango Movies \u2013 Times & Tickets
p2
sS'description'
p3
S'<p>Download Fandango - the #1 movie ticketing app featured in Apple commercials &amp; winner of three Webby Awards!  <br/><br/>New in 5.1.1:<br/>\xe2\x80\xa2 Save time with Passbook! Now you can send &amp; store your "Mobile Ticket" for participating theaters in Passbook &amp; breeze into the theater (iPhone/iPod Touch iOS 6 users only, look for the "Mobile Ticket" icon on the theater page) <br/>\xe2\x80\xa2 General bug fixes &amp; usability enhancements<br/>\xe2\x80\xa2 iPod Touch users, the black screen issue has been fixed!<br/><br/>Browse Movies:<br/>\xe2\x80\xa2 Find out what\'s playing \xe2\x80\x93 use our search function, browse movies by poster or "In Theaters" &amp; "Coming Soon" lists <br/>\xe2\x80\xa2 Save the movies you want to see and sign up for FanAlerts to be notified when they hit your local theater with the "My Movies" list<br/>\xe2\x80\xa2 View high-quality trailers, clips, exclusive interviews, movie stills &amp; cast photos. Send trailers to your Apple TV over AirPlay <br/>\xe2\x80\xa2 Read Fandango Fan Ratings &amp; reviews, critic reviews, Movie Tweets &amp; scores from Metacritic<br/>\xe2\x80\xa2 View the most accurate showtimes, MPAA ratings, synopses, run times &amp; director &amp; cast lists<br/><br/>Find Theaters:<br/>\xe2\x80\xa2 Find theaters using the iOS location feature, view them in a list or within map &amp; get directions <br/>\xe2\x80\xa2 Add theaters to a "Favorites" list for faster searching<br/>\xe2\x80\xa2 See all of the amenities (Reserved Seating, Mobile Ticket &amp; more!) available for your theater <br/><br/>Purchase Tickets:<br/>\xe2\x80\xa2 Buy tickets seamlessly without leaving the app for 20,000+ screens - and counting \xe2\x80\x93 more than on any other app! Now including all AMC Theatres locations!  <br/>\xe2\x80\xa2 Go straight to the ticket-taker to have your device scanned with "Mobile Ticket" (participating theaters only)<br/>\xe2\x80\xa2 Reserved Seating now available. For select theaters, pick your seat directly from the app!  <br/>\xe2\x80\xa2 Sync to your Fandango account to purchase tickets with your stored credit card, securely store card info to your device or use Fandango gift certificates as a payment option <br/>\xe2\x80\xa2 No Fandango account?  Create one from the app for faster ticket purchasing!<br/>\xe2\x80\xa2 Apply your theater reward card number to applicable orders &amp; earn rewards points! (participating theaters only) (iPhone &amp; iPad users only)  <br/>\xe2\x80\xa2 E-mail movie, showtime, theater &amp; ticket details to a friend to make planning a movie night easier than ever<br/><br/>Share + Sync:<br/>\xe2\x80\xa2 Automatically sign in to the app using Facebook single sign-on<br/>\xe2\x80\xa2 Rate &amp; review movies directly from the app, share with other Fandango users or share via Facebook &amp; Twitter (Twitter for iOS 5 users only)<br/>\xe2\x80\xa2 No matter what device you\xe2\x80\x99re on, your "Favorite Theaters" and "My Movies" lists will now sync when you sign into your account<br/>\xe2\x80\xa2 Sign in to your Fandango account to view website &amp; app purchase history, ticket details &amp; to access reviews you\xe2\x80\x99ve written <br/><br/>Extras for iPad:<br/>\xe2\x80\xa2 The Pulse \xe2\x80\x93 Want a snapshot of what\'s selling on Fandango? Then tap into The Pulse!  <br/>\xe2\x80\xa2 Filter movies by genre, MPAA rating &amp; format, including IMAX &amp; 3D<br/>\xe2\x80\xa2 Movie posters &amp; more have been optimized for the new iPad\'s retina display <br/><br/>Special for iPhone/iPod touch:<br/>\xe2\x80\xa2 Save time with Passbook! Now you can send &amp; store your "Mobile Ticket" for participating theaters in Passbook &amp; breeze into the theater (iPhone iOS 6 users only)<br/>\xe2\x80\xa2 Select PayPal as a payment option when purchasing on the iPhone.<br/>\xe2\x80\xa2 Use our search function or browse &amp; sort movies based on your preferences   <br/>\xe2\x80\xa2 Text movie, showtime, theater &amp; ticket details<br/><br/>By downloading, installing and using this App, you agree to Fandango\'s Privacy Policy (http://www.fandango.com/PrivacyPolicy.aspx), Terms of Use (http://www.fandango.com/TermsOfUse.aspx) and Purchase Policy (http://www.fandango.com/PurchasePolicy.aspx).<br/><br/>Help us make Fandango even better! Send suggestions and report issues to: iphoneappcomments@fandango.com.</p>'
p4
sS'appid'
p5
S'307906541'
p6
s.