(dp0
S'title'
p1
VDictionary.com Dictionary & Thesaurus - Free
p2
sS'description'
p3
S'<p>Top-rated app with trusted reference content from Dictionary.com &amp; Thesaurus.com. WORKS OFFLINE - no Internet connection needed when searching words. \xe2\x98\x85 Time Magazine \xe2\x80\x98Top 10 Back-To-School App\xe2\x80\x99, Apple \xe2\x80\x98Top 10 App\xe2\x80\x99 High School Survival Guide, Winner: CNET Top 100 Mobile App Award \xe2\x98\x85<br/><br/>Features:<br/>* English Dictionary and Thesaurus - over 2,000,000 definitions, synonyms &amp; antonyms<br/>* Offline access \xe2\x80\x93 no Internet connection needed for most content<br/>* Daily content, including Word of the Day &amp; The Hot Word <br/>* Audio pronunciation <br/>* Example sentences <br/>* Word origin &amp; history<br/>* Voice search (five free searches included)<br/>* Favorite words <br/>* Search history<br/>* Spelling suggestions<br/>* Popular &amp; local trending searches<br/>* Shake your iPhone to receive a random, surprise word<br/><br/>Tip: To turn Word of the Day notifications on or off, go to Settings &gt; Notifications &gt; Dictionary and toggle On or Off.</p>'
p4
sS'appid'
p5
S'308750436'
p6
s.