(dp0
S'title'
p1
VGrindr - Gay, bi, & curious guy finder
p2
sS'description'
p3
S'<p>Grindr is the essential location-based app to meet gay, bi and curious guys for dating, socializing and friendship. Using your iPhone, iPad or iPod Touch\xe2\x80\x94 Grindr is a location-based app that uses GPS, the 3G network and Wi-Fi signal to identify your physical location so you can chat, network and mingle with the guys near you at home or on the road.<br/><br/>No account is required to use Grindr, and the app is 100% free. Simply download and launch the app, upload a photo and enter profile information to begin browsing photos of guys nearby. Send a text via chat and strike up a conversation with like-minded men closest to you, or anywhere you travel.<br/><br/>With over 4 million members in 192 countries, Grindr offers the world\xe2\x80\x99s largest all-male, location-based mobile network with 10,000 new men joining the Grindr network daily.<br/><br/>Note: Grind only allows males 18 years or older. Photos depicting nudity or sex acts are strictly prohibited.</p>'
p4
sS'appid'
p5
S'308956623'
p6
s.