(dp0
S'title'
p1
VWhatsApp Messenger
p2
sS'description'
p3
S'<p>WhatsApp Messenger is a cross-platform smartphone messenger currently available for iPhone and all other smartphones.  The application utilizes push notifications to instantly get messages from friends, colleagues and family.  Switch from SMS to exchange messages, pictures, audio notes and video messages with WhatsApp users at no cost.  All features are included without the need for extra in-application purchases.<br/><br/>*********************************<br/>WHY USE WHATSAPP:<br/>*********************************<br/><br/>* NO HIDDEN COST:  Once you and your friends download the application, you can use it to chat as much as you want.  Send a million messages a day to your friends for free!  WhatsApp uses your Internet connection: 3G/EDGE or Wi-Fi when available.<br/><br/>* MULTIMEDIA:  Send Video, Images, and Voice notes to your friends and contacts.<br/><br/>* GROUP CHAT: Enjoy group conversations with your contacts.  Add or Remove group participants, change group subject and set a group icon.<br/><br/>* PERSONAL: Set a profile photo which will be shown to all your contacts<br/><br/>* NO INTERNATIONAL CHARGES:  Just like there is no added cost to send an international email, there is no cost to send WhatsApp messages internationally. Chat with your friends all over the world as long as they have WhatsApp Messenger installed and avoid those pesky international SMS costs.<br/><br/>* SAY NO TO PINS AND USERNAMES:  Why even bother having to remember yet another PIN or username?  WhatsApp works with your phone number, just like SMS would, and integrates flawlessly with your existing phone address book.<br/><br/>* NO NEED TO LOG IN/OUT:  No more confusion about getting logged off from another computer or device.  With push notifications WhatsApp is ALWAYS ON and ALWAYS CONNECTED.<br/><br/>* NO NEED TO ADD BUDDIES:  Your Address Book is used to automatically connect you with your contacts.  Your contacts who already have WhatsApp Messenger will be automatically displayed under Favorites, similar to a buddy list.<br/><br/>* OFFLINE MESSAGES:  Even if you miss your push notifications or turn off your iPhone, WhatsApp will save your messages offline until you retrieve them during the next application use.<br/><br/>* AND MUCH MORE:  Share location and places, Exchange contacts, Custom wallpaper, Custom notification sounds, Landscape mode, Message timestamps, Email chat history, Broadcast messages and media to many contacts at once, and much much more!<br/><br/>---------------------------------------------------------<br/>We\xe2\x80\x99re always excited to hear from you!  If you have any feedback, questions, or concerns, please email us at: <br/><br/>iphone-support@whatsapp.com <br/>or visit http://www.whatsapp.com/faq/iphone<br/><br/>or follow us on twitter: <br/><br/>http://twitter.com/WhatsApp<br/>@WhatsApp <br/><br/>---------------------------------------------------------<br/><br/>WhatsApp on iPhone works with virtually all carriers and networks but some carrier limitations may apply. If you are on an Apple unsupported wireless carrier, double check our FAQ for up to date information on our coverage.  <br/><br/>NOTE: WhatsApp is a telephony application and as such iPod or iPad are NOT supported devices.</p>'
p4
sS'appid'
p5
S'310633997'
p6
s.