(dp0
S'title'
p1
VReal Estate by Zillow \u2013 Homes & Apartments, For Sale or Rent
p2
sS'description'
p3
S'<p>#1 Real Estate App on iTunes and "Best Real Estate App" by O\'Reilly Media\xc2\xa0<br/><br/>Zillow iPhone App:<br/>For all U.S. homes (100+ million): Find Zestimate\xc2\xae home values, Rent Zestimates, homes for sale, homes for rent, and more as you walk or drive through neighborhoods using the\xc2\xa0Zillow iPhone App, featuring built-in GPS technology, plus a mortgage calculator.\xc2\xa0<br/><br/>Zillow on iPad:<br/>View gorgeous photo galleries of homes on iPad\'s large, eye-popping 10-inch touch screen where your fingertips tap, swipe, pinch, and drag to\xc2\xa0see Zestimate home values, homes for sale, homes for rent, apartments, and more.\xc2\xa0<br/><br/>View high-resolution photos side-by-side as you window shop through neighborhoods. Touch and expand a "photo stack" to peek inside a home. Save any home you like by\xc2\xa0dragging and dropping it to your favorites.<br/><br/>iPad and iPhone users can:\xc2\xa0<br/>- See Zestimate values of any home\xc2\xa0in the U.S.<br/>\xe2\x80\xa8- See Rent Zestimates (estimated monthly rental price), on most homes\xe2\x80\xa8<br/>- Search homes for sale, Make Me Move\xc2\xae homes, homes for rent, and recently sold homes<br/>- Search by price cuts, open houses, and Zillow Special offers\xe2\x80\xa8<br/>- Filter searches by price, beds, baths, keywords, monthly mortgage payment, and more\xe2\x80\xa8<br/>- View full-screen color photos<br/>- Save your Favorites Homes and Searches and access them both on your device and Zillow.com after syncing <br/>- Receive notifications when new listings hit the market<br/>- Get status notifications for your saved searches when homes are: posted for sale, drop in price, show an open house date, are sold, add a Zillow Special Offer and more.<br/>- Get mortgage calculators, real-time mortgage rates, and personalized loan quotes<br/>- See nearby amenities (restaurants, groceries, and more)\xc2\xa0<br/>- Get driving directions to a home\xc2\xa0<br/>- Contact agents about any home\xc2\xa0<br/>\xe2\x80\xa8- Share homes by email, Facebook, or Twitter\xe2\x80\xa8<br/>- Draw your own search area(s) with your finger. Narrow your search region by drawing a boundary around specific streets and save those custom-drawn searches<br/><br/>We love to hear from you, so please send any feedback or bug reports to the team at iphonefeedback@zillow.com\xc2\xa0<br/><br/>Use of the Zillow iPhone App and the Zillow on iPad App and the services provided through the Apps are subject to Zillow.com\'s Terms of Use: http://www.zillow.com/corp/Terms.htm</p>'
p4
sS'appid'
p5
S'310738695'
p6
s.