(dp0
S'title'
p1
VSky Burger
p2
sS'description'
p3
S'<p>Sky Burger puts you to work stacking burgers to order! Catch the right ingredients as they fall from the sky, and don\xe2\x80\x99t forget that top bun when you\xe2\x80\x99re done!<br/><br/>Build over 50 unique burger orders that grow taller and taller the more orders you complete. Complete enough orders in a row and build an unlimited SkyBurger! <br/><br/>Earn cash for each burger and get promoted up the Sky Burger corporate ladder.  Watch your business grow with each promotion!  Look back at your career stats and compare them to the top Sky Burger employees.</p>'
p4
sS'appid'
p5
S'311972587'
p6
s.