(dp0
S'title'
p1
VThe Moron Test
p2
sS'description'
p3
S'<p>Graduate from Moron to Genius as you tap, twist, and shake your way through these fun and tricky challenges! Master the game, then laugh as your friends and family struggle with these seemingly simple puzzles!<br/><br/>The Moron Test is one of the most popular mobile games ever with millions of players worldwide. Play now and experience why The Moron Test is an App Store favorite!<br/><br/>The Moron Test - it\'s fun to FAIL!<br/><br/>FEATURES:<br/><br/>- Simple, addicting gameplay<br/>- Five sections featuring hundreds of fun puzzles<br/>- Funny characters, sound effects, and music<br/>- Global leaderboards and achievements<br/>- Beautiful Retina graphics<br/>- You will LOVE watching your friends FAIL!<br/><br/>SECTIONS:<br/><br/>- Old School<br/>- Late Registration<br/>- Winter Break<br/>- Food Fight<br/>- Skip Day<br/><br/>We even include an extra \'Pocket God\'-themed section named \xe2\x80\x98Ooga School\xe2\x80\x99. Also, check inside for "Failing in Love", the first animated short featuring characters from The Moron Test!</p>'
p4
sS'appid'
p5
S'312343159'
p6
s.