(dp0
S'title'
p1
VRL Classic
p2
sS'description'
p3
S'<p>RL Classic \xe2\x80\x95\xe2\x80\x95 Impossibly accurate barcode scanning.<br/><br/>We have changed the logo and name of the app to RL Classic to reflect the launch of our updated RedLaser Barcode Scanner and QR Code Reader app.  The new app is available for download in the app store now.  To experience the latest and best scanning yet, simply search for RedLaser \xe2\x80\x93 Barcode Scanner and QR Code Reader in iTunes and download the best RedLaser yet.<br/><br/><br/>\xe2\x96\xba FEATURED IN AN IPHONE TV AD!<br/>\xe2\x96\xba Now part of the eBay Mobile family &amp; free to download!<br/><br/>\xe2\x9c\x93 Shop smarter. RL Classic searches for low online and local prices from hundreds of thousands of retailers. Features product results from Google, TheFind, SDC, eBay, Milo.com, Half.com, and more!<br/><br/>\xe2\x9c\x93 Scan faster. Even without autofocus! RL Classic uses state-of-the-art barcode recognition that can readvirtually any product barcode. Works great on the iPhone or iPod Touch!<br/><br/>\xe2\x97\x8f Features \xe2\x97\x8f<br/><br/>\xe2\x9c\x93 Scans UPC, EAN, UPC-E and EAN-8 barcodes!<br/>\xe2\x9c\x93 QR code scanning including URLs, contact info, calendar events, emails and more!<br/>\xe2\x9c\x93 Searches for prices with Google, theFind, SDC, eBay, Milo.com, Half.com, and Buy.com<br/>\xe2\x9c\x93 Keyword search and Voice search functionality to find the best deal when you don\xe2\x80\x99t have a barcode handy<br/>\xe2\x9c\x93 Local search powered by Milo.com and TheFind<br/>\xe2\x9c\x93 Local search locates books in nearby libraries<br/>\xe2\x9c\x93 High-res Retina display support for iPhone 4<br/>\xe2\x9c\x93 iPhone 4 LED light option during scanning<br/>\xe2\x9c\x93 Send scanned products as email attachment \xe2\x80\x95 great for inventory!<br/>\xe2\x9c\x93 Automatic search localization for USD, EUR, and GBP<br/>\xe2\x9c\x93 Create a QR Code from your contacts, a URL, or text<br/><br/>\xe2\x97\x8f Tips \xe2\x97\x8f<br/><br/>\xe2\x96\xba ATTRIBUTION: RL Classic uses two separate algorithms for recognizing barcodes. One is part of the ZXing Project: http://bit.ly/zxproj which is licensed under the Apache 2.0 License. Full: http://bit.ly/a2license</p>'
p4
sS'appid'
p5
S'312720263'
p6
s.