(dp0
S'title'
p1
VCraigs'list
p2
sS'description'
p3
S'<p>Craigslist for iPhone features an intuitive interface and myriads of features to browse and post to Craigslist.<br/><br/>\xe2\x98\x85\xe2\x98\x85\xe2\x98\x85\xe2\x98\x85\xe2\x98\x85 The New York Times: "iPhone users have a secret weapon, which lets you search Craigslist much more easily than the Web site, and it offers a handful of other great features"<br/><br/>\xe2\x80\xa2 simultaneous MULTI-CITY searches <br/>\xe2\x80\xa2 thumbnail PHOTO PREVIEWS<br/>\xe2\x80\xa2 GPS-based AUTO-LOCATION <br/>\xe2\x80\xa2 MAP BROWSER<br/>\xe2\x80\xa2 PHOTO WALL with matching results listed as photos<br/>\xe2\x80\xa2 Craigslist POSTING with PHOTOS <br/>\xe2\x80\xa2 Craigslist ACCOUNT MANAGEMENT<br/>\xe2\x80\xa2 SORT results by date, best match, or low/high price<br/>\xe2\x80\xa2 full-screen, pinch-and-zoom PHOTOS <br/>\xe2\x80\xa2 HISTORY of searches.  REPEAT a search by clicking the \'bookmarks\' button in the search bar and selecting one of the previous searches<br/>\xe2\x80\xa2 SAVE and repeat fully-configured searches<br/>\xe2\x80\xa2 a TRACKING SYSTEM for saved searches with NEW MATCH indicators<br/>\xe2\x80\xa2 NEIGHBORHOOD filtering for metropolitan areas<br/>\xe2\x80\xa2 "TIME SINCE POSTED" indicators<br/>\xe2\x80\xa2 "PULL TO REFRESH" search results<br/>\xe2\x80\xa2 "ALREADY SEEN" listing indicators (green checkmarks)<br/>\xe2\x80\xa2 FLAG inappropriate and best-of-craigslist ads<br/>\xe2\x80\xa2 option to save Craigslist ads to your FAVORITES (full version)<br/>\xe2\x80\xa2 Best of Craigslist!<br/><br/>Also, you will be able to:<br/>\xe2\x80\xa2 REPLY by email<br/>\xe2\x80\xa2 attach PHOTOS to emails<br/>\xe2\x80\xa2 EMAIL listings to a FRIEND or yourself<br/>\xe2\x80\xa2 add NOTES to your FAVORITE ads to keep track of your discussions with posters (full version)<br/>\xe2\x80\xa2 retrieve DIRECTIONS to the posted location <br/>\xe2\x80\xa2 open the original listing web page<br/>\xe2\x80\xa2 PHONE number detection.  You can call the poster directly from the app<br/>\xe2\x80\xa2 save photos to your PHOTO ALBUM<br/>\xe2\x80\xa2 share interesting ads on TWITTER<br/><br/>Need additional features?  Sure, there are tons more:<br/>\xe2\x80\xa2 simply ALL Craigslist cities, states and continents<br/>\xe2\x80\xa2 integrated SUBCATEGORIES<br/>\xe2\x80\xa2 posting from MULTIPLE ACCOUNTS<br/>\xe2\x80\xa2 take pictures with your CAMERA or use images from your PHOTO ALBUM to include into your posting<br/>\xe2\x80\xa2 reply with ATTACHED PHOTOS<br/>\xe2\x80\xa2 SHAKE your iPhone to return to the main search page <br/>\xe2\x80\xa2 enhanced SEARCH OPTIONS.  Search options have been tailored to different search categories - for sale, housing, jobs, and gigs<br/>\xe2\x80\xa2 posting with LICENSURE info to metropolitan housing &amp; apts<br/>\xe2\x80\xa2 PIN code protection against unauthorized use<br/>\xe2\x80\xa2 etc, etc, etc<br/><br/>And remember:<br/>\xe2\x80\xa2 Craigslist for iPhone results are always identical to Craigslist, as the app reads Craigslist directly each time!  You have the power of 20+ search options to narrow down the search to what you are interested in.<br/><br/>\xe2\x98\x85\xe2\x98\x85\xe2\x98\x85\xe2\x98\x85\xe2\x98\x85 CNET: "Overall, if you want a better way to search or post to Craigslist on your iPhone, Craigslist Pro has plenty to offer, with several added features to make finding what you want easier."<br/><br/>Questions?<br/>craigspro.app@gmail.com</p>'
p4
sS'appid'
p5
S'313917737'
p6
s.