(dp0
S'title'
p1
VtextPlus Free Text : Free Texting + Free Worldwide Messenger
p2
sS'description'
p3
S'<p>Turn your iPod touch, iPad or iPhone into a FREE phone. Switch to textPlus and SAVE up to $240 a year on text plans. Works on WiFi, 3G &amp; 4G so you can text from anywhere.<br/><br/>Text anyone for free, even friends without the app <br/>\xe2\x9c\xaa Unlimited Free text to any US or Canadian mobile number <br/>\xe2\x9c\xaa Free app-to-app messaging with textPlus users anywhere in the galaxy <br/>\xe2\x9c\xaa Walkie Talkie, Group Text &amp; Send Pics for free too <br/>\xe2\x9c\xaa Get a real free Phone Number to text free from any device even iPad or iPod touch <br/>\xe2\x9c\xaa Spend your hard-earned cash on YOU. Save $240/year on text plans by using textPlus instead. <br/>\xe2\x9c\xaa Invite friends to textPlus so they can text for free too<br/><br/>Plus\xe2\x80\x99ed up so you can text for free right away <br/>\xe2\x9c\xaa See your device contacts instantly in the app as soon as you register <br/>\xe2\x9c\xaa Find Facebook friends on textPlus when you link to Facebook in the People tab <br/>\xe2\x9c\xaa Tap the phone icon in your textPlus Free Texting Inbox to launch textPlus Free Calls anytime <br/><br/>Never miss a Message <br/>\xe2\x9c\xaa Push Notifications when you\xe2\x80\x99re outside the app <br/>\xe2\x9c\xaa Texts in the Cloud - Battery died? In a movie? Turn your device back on &amp; see messages you missed <br/>\xe2\x9c\xaa Message from any device to friends on any device, even if they don\xe2\x80\x99t have textPlus <br/>\xe2\x9c\xaa Notifications when new friends join <br/><br/>For the Social Butterfly in Everyone <br/>\xe2\x9c\xaa NEW Facebook features keep your social groups in the know:<br/>\xe2\x86\x92 Tap the Facebook Invite button at the top of your Inbox to easily share textPlus with friends<br/>\xe2\x86\x92 Find out if you\xe2\x80\x99re a top textPlus texter by sharing your textPlus messaging stats on your Facebook timeline.  Check out friends\xe2\x80\x99 stats too and finally settle the score! (To share on Facebook vist More tab &gt; My Profile &gt; \xe2\x80\x9cPublish to Timeline\xe2\x80\x9d ON)<br/>\xe2\x9c\xaa Visit the +Apps tab to discover new apps <br/>\xe2\x9c\xaa Personalized signatures <br/><br/><br/>JOIN THE TEXTPLUS COMMUNITY! <br/>Facebook: www.facebook.com/textplus <br/>Twitter: www.twitter.com/textplus <br/>Questions? Visit help.textplus.com or Email support@textplus.com <br/>textPlus Privacy Policy: http://www.textplus.com/gogii-privacy-policy-2/<br/></p>'
p4
sS'appid'
p5
S'314487667'
p6
s.