(dp0
S'title'
p1
VTextNow + Voice - Free Texting and Calling
p2
sS'description'
p3
S'<p>FREE TEXTING, PICTURE MESSAGING, CALLING, AND VOICEMAIL<br/><br/>DEDICATED PHONE NUMBER<br/>Give your friends your very own phone number!<br/><br/>UNLIMITED TEXT AND PICTURE MESSAGING<br/>You can send as many texts and picture messages as you want - FREE!<br/><br/>TURN YOUR IPOD OR IPAD INTO A PHONE<br/>Works on your iPod Touch, iPad, and iPhone<br/><br/>IS IT REALLY FREE?<br/>There is no catch. No yearly or monthly fees! It is completely free!<br/><br/>HOW CAN ALL OF THIS BE FREE?<br/>The app comes with a few ads. If you don\'t like ads, you can purchase a subscription to remove them.<br/><br/>OTHER AWESOME STUFF<br/>- Customize the look and feel of the app<br/>- Tons of wallpaper, color schemes, and ringtones to choose from<br/>- Use your own pics as wallpaper<br/>- Customize your own voicemail greeting<br/>- Make your own signature<br/>- Super fast<br/>- Bluetooth support for iPhone users<br/><br/>PEOPLE WHO LOVE TEXTNOW<br/>"If you want an unlimited texting without the high priced carrier based texting plans, then Textnow is the app for you." 4/5 rating --AppAdvice<br/><br/>"anyone needing an unlimited number of texts, we\xe2\x80\x99d recommend TextNow as our app of choice" --AppAddict<br/><br/>"Just as fast sending/receiving as regular texts for me (including people who don\'t have the app)." -tbm248, MacRumors<br/><br/>I CAN\'T FIND MY AREA CODE. WHAT SHOULD I DO?<br/>Functionally, it makes no difference which area code you pick. As long as your friends are in the USA, they will not be charged any long distance.</p>'
p4
sS'appid'
p5
S'314716233'
p6
s.