(dp0
S'title'
p1
VPaper Toss
p2
sS'description'
p3
S'<p>** Now with Retina Display support for iPhone 4 **<br/><br/>Have you ever been bored at work, crumpled up a piece of paper and counted how many times you can make it in a small trash can?  Has your boss ever gone out for a quick bite while you and your co-workers see how far you can move the trash can away and still make the paper shot?  Have you ever brought in electric fans to make the shot even harder?  Backflip Studios is happy to announce that we have brought this amazing and hilarious experience to the iPhone. <br/><br/>This game is oddly satisfying . . . much like tossing a real ball of crumpled paper into a metal trash basket.  So realistic, you will think you are stuck in an office killing time.<br/><br/>Amaze, share and compare your scores with friends and others on the online global scoreboard.<br/><br/>Game includes:<br/>-Gorgeous graphics<br/>-7 levels of varied difficulty<br/>-Innovative flick control<br/>-Global online scoreboard<br/>-Animated paper<br/>-Real office sounds<br/>-Varying wind speed from fan impacts paper flight<br/>-Verbal abuse from angry co-workers<br/>-Mobile Ads<br/>-Retina Display support with high-resolution graphics for iPhone 4<br/><br/>Let us know what you think.  <br/><br/>You can follow us on Twitter at: http://twitter.com/backflipstudios <br/><br/>"Paper Toss" has been installed more than 22,000,000 times - give it a shot if you haven\'t yet.  Also, try "Graffiti Ball", "Tunnel Shoot", "Strike Knight", "Ragdoll Blaster", "Ragdoll Blaster 2", "Harbor Havoc 3D", and "Paper Toss: World Tour"!</p>'
p4
sS'appid'
p5
S'317917431'
p6
s.