(dp0
S'title'
p1
VSolitaire\u200b
p2
sS'description'
p3
S'<p>Klondike solitaire - the most popular solitaire card game in the world. The goal is to place all the cards in each suit in stacks of ascending rank.<br/><br/>Play Klondike solitaire to relax and relieve stress. Touch and move cards as you do in real life, cards are flying and landing softly. Clean and vivid graphics make you fully enjoy gameplay.<br/><br/>Game features:<br/>- deal 1 or 3 cards<br/>- scoring option with GameCenter<br/>- timer option<br/>- autosave when exit or phone ring<br/>- double-tap to complete<br/>- background themes<br/>- card deck themes</p>'
p4
sS'appid'
p5
S'319400426'
p6
s.