(dp0
S'title'
p1
VeBuddy Messenger
p2
sS'description'
p3
S"<p>eBuddy: Chat on AIM, MSN / Windows Live Messenger, Yahoo, Facebook Chat, GTalk, MySpace, Hyves and ICQ.<br/><br/>eBuddy for iPhone and iPod Touch is one of the most popular IM apps in the world, with more than 5 million downloads.<br/><br/><br/>PUSH NOTIFICATIONS UP TO 12 HOURS<br/><br/>Stay online and get Push Notifications for incoming messages even when you exit the app.<br/><br/>LANDSCAPE MODE<br/><br/>Enjoy chatting with a horizontal keyboard.<br/><br/>ONE BUDDY LIST<br/><br/>Have all your AIM, MSN / Windows Live Messenger, Yahoo, Facebook Chat, GTalk, MySpace, Hyves and ICQ buddies in one list! <br/><br/><br/>CHAT FEATURES<br/><br/>- Easily switch between chats by swiping your screen<br/>- Shake your iPhone or iPod Touch to send a buzzer<br/>- Get new message alerts and typing alerts in the chat screen<br/><br/><br/>A premium version of eBuddy is also available. eBuddy Pro provides the ultimate chat experience with themes, Push Notifications for 7 days, setting your display picture from phone memory or camera and much more! You can find it in the App Store by searching for \xe2\x80\x9ceBuddy Pro\xe2\x80\x9d. <br/><br/><br/>MORE FEATURES<br/><br/>- Emoticons<br/>- Sound &amp; vibration<br/>- Group chat support<br/>- View display pictures, personal message and status of buddies<br/>- Automatically reconnect when connection is lost<br/>- View all offline messages (after reconnect)<br/><br/><br/>eBuddy is one of the largest Instant Messaging services in the world, with more than 30 million users worldwide!<br/><br/><br/>FEEDBACK<br/><br/>We are constantly working on improving our apps, so stay tuned for updates and new features!<br/><br/>Meanwhile, please help us improve our app: Share your feedback in the 'Tell us what you think' form in the app, or send an e-mail to feedback_iphone@ebuddy.com.</p>"
p4
sS'appid'
p5
S'320087242'
p6
s.