(dp0
S'title'
p1
VSleep Cycle alarm clock
p2
sS'description'
p3
S'<p>Waking up made easy.<br/><br/>An intelligent alarm clock that analyzes your sleep and wakes you in the lightest sleep phase \xe2\x80\x93 the natural way to wake up feeling rested and relaxed.\xc2\xa0<br/><br/>We\xc2\xa0now help more than a million people wake up rested!<br/><br/>#1 Top Paid app in Japan\xc2\xa0<br/>#1 Top Paid app in Germany\xc2\xa0<br/>#1 Top Paid app in France\xc2\xa0<br/>#1 Top Paid app in Russia\xc2\xa0<br/>#1 Top Paid app in Netherlands\xc2\xa0<br/>#1 Top Paid app in Taiwan\xc2\xa0<br/>#1 Top Paid app in South Korea\xc2\xa0<br/>#1 Top Paid app in Sweden\xc2\xa0<br/>#1 Top Paid app in Norway\xc2\xa0<br/>...and many more.\xc2\xa0<br/><br/>"It just works. Period. It does exactly what it advertises which is absolutely amazing."\xc2\xa0<br/>-- 5/5 stars on\xc2\xa0148apps.com<br/><br/>Sleep cycle is continuously rated as the best intelligent alarm clock,\xc2\xa0Sleep Cycle is now the worlds most used intelligent alarm clock.<br/><br/>-------------------------------------------------------\xc2\xa0<br/><br/>* Sleep Cycle monitors your movement during sleep using the extremely sensitive accelerometer in your iPhone.\xc2\xa0<br/><br/>* Sleep Cycle then finds the optimal time to wake you up during a 30 minute window that ends at your set alarm time.\xc2\xa0<br/><br/>* Look at the screenshots for recommended iPhone placement.\xc2\xa0<br/><br/>-------------------------------------------------------\xc2\xa0<br/><br/>As you sleep you go through different phases, ranging from deep sleep to light sleep. The phase you are in when your alarm goes off is critical for how tired you will feel when you wake up.\xc2\xa0<br/><br/>Since you move differently in bed during the different phases, Sleep Cycle can use the accelerometer in your iPhone to monitor your movement and determine which sleep phase you are in.\xc2\xa0<br/><br/>Sleep Cycle wakes you when you are in your lightest sleep phase.\xc2\xa0<br/><br/>Sleep Cycle was developed using proven sleep science and years of research and development.\xc2\xa0<br/><br/>-------------------------------------------------------\xc2\xa0<br/><br/>MAIN FEATURES<br/><br/>\xe2\x80\x93\xc2\xa0Waking up made easy! Sleep Cycle analyzes your sleep and wakes you in your lightest sleep phase.<br/><br/>\xe2\x80\x93\xc2\xa0Detailed sleep statistics and sleep graphs for every night.<br/><br/>\xe2\x80\x93 15 carefully selected, high quality, alarm melodies.<br/><br/>\xe2\x80\x93 Use iPod music as wake up sound<br/><br/>\xe2\x80\x93 Snooze by shaking or tapping\xc2\xa0the phone\xc2\xa0lightly.<br/><br/>\xe2\x80\x93 Customizable wake up window. From instant (regular alarm clock) up to 90 minutes.<br/><br/>\xe2\x80\x93 Background mode - set your alarm and exit Sleep Cycle - sleep analysis will continue in the background<br/><br/>\xe2\x80\x93 Sleep notes: see how events such as drinking coffee, eating too much or having a stressful day affect your sleep quality<br/><br/>\xe2\x80\x93\xc2\xa0Long term graphs: track sleep quality over time, see which days of the week you sleep best and much more<br/><br/>\xe2\x80\x93 Export sleep data to Excel for detailed analysis<br/><br/>-------------------------------------------------------\xc2\xa0<br/><br/>REQUIREMENTS\xc2\xa0<br/>Ability to charge your phone by the bed<br/>Ability to place your iPhone according to the instructions (see screenshots)</p>'
p4
sS'appid'
p5
S'320606217'
p6
s.