(dp0
S'title'
p1
VPizza Hut
p2
sS'description'
p3
S'<p>Ordering functionality is for U.S. residents only.<br/><br/>We\xe2\x80\x99ve made the #1 killer app for your appetite even more amazing with some exciting new updates! <br/><br/>This latest version of the official Pizza Hut iPhone app has several new features that make it easier than ever to order your favorites. Enjoy an expanded full menu, save your previous orders, explore daily specials, order our Most Popular items with just a few taps, and more. Check out some of the new features below and you\xe2\x80\x99ll see why the next generation Pizza Hut iPhone app is the absolute best way to order.<br/><br/>NEW FEATURES:<br/>\xe2\x80\xa2Our expanded menu offers Specialty pizzas, pasta, WingStreet wings, drinks, sides, desserts and limited time offers.<br/>\xe2\x80\xa2Guest Checkout allows you to order without signing in.<br/>\xe2\x80\xa2Orders are automatically saved to your account for easy reordering.<br/>\xe2\x80\xa2Most Popular items section provides quick and easy access to Pizza Hut favorites.<br/>\xe2\x80\xa2New Specials section provides updates on new products and deals.<br/>\xe2\x80\xa2Checking out is easier than ever before, allowing you to add credit card options without creating an account.<br/><br/>HELPFUL TIPS:<br/>\xe2\x80\xa2Ordering functionality is for U.S. residents only.<br/>\xe2\x80\xa2Key ordering functionality for the app can only be accessed during the operating hours of your local store.<br/>\xe2\x80\xa2Because the Pizza Hut app is large, it is best to download it from the App Store or a Wi-Fi network.<br/><br/>Have questions or comments about this app? Contact us at: iPhone@pizzahut.com</p>'
p4
sS'appid'
p5
S'321560858'
p6
s.