(dp0
S'title'
p1
VWords With Friends Free
p2
sS'description'
p3
S'<p>Play the free version of Words With Friends -- the game more of your friends are playing than any other word game! <br/><br/>Experience for yourself why more than 20 million people are addicted to the word building, triple score seeking, chat bubble sending goodness of Words With Friends.<br/><br/>________________________________________<br/><br/><br/>PRAISE FOR WORDS<br/><br/>\xe2\x80\xa2 "Delightfully addictive." \xe2\x80\x93 GeekSugar<br/><br/>\xe2\x80\xa2 "Social gaming at its finest." \xe2\x80\x93 Fox News<br/><br/>\xe2\x80\xa2 "Everyone who owns an iPhone or iPod Touch should have this game on their device." \xe2\x80\x93 Touch Arcade<br/><br/><br/>ADDICTIVE FEATURES<br/><br/>\xe2\x80\xa2 Simple and familiar gameplay you know and love<br/><br/>\xe2\x80\xa2 Turn-based design lets you play up to 20 games simultaneously<br/><br/>\xe2\x80\xa2 Play with your friends or match-make instantly with a random opponent<br/><br/>\xe2\x80\xa2 Connect to Facebook to find even more of your friends to play<br/><br/>\xe2\x80\xa2 Stay in touch with friends and family with in-game chat messaging<br/><br/>\xe2\x80\xa2 Push notifications tell you when it\xe2\x80\x99s your turn<br/><br/>\xe2\x80\xa2 Access your games across your iPhone, iPad and/or iPod touch<br/><br/>________________________________________<br/><br/><br/>If you like Words With Friends, try Hanging With Friends. And iPad users, check out Words With Friends HD.<br/><br/>Already a fan of the game?<br/>Like us on Facebook: http://www.facebook.com/WordsWithFriends<br/>Follow us on Twitter: http://twitter.com/WordsWFriends<br/><br/><br/>Use of this application requires a Facebook or Games With Friends account and is governed by the Zynga Terms of Service. Collection and use of personal data are subject to Zynga\'s Privacy Policy. Both policies are available in the Application License Agreement below as well as at www.zynga.com. Social Networking Service terms may also apply.</p>'
p4
sS'appid'
p5
S'321916506'
p6
s.