(dp0
S'title'
p1
VWaze social GPS traffic & gas
p2
sS'description'
p3
S"<p>*** New - easily find cheap gas on your route! ***<br/><br/>Waze is a fun, community-based traffic &amp; navigation app, 20 million strong. Plug into the driving community in your area, joining forces with other drivers nearby to outsmart traffic, save time &amp; gas $, and improve everyone's daily commute.<br/><br/>\xe2\x9c\x93 Community generated real-time traffic and road alerts including accidents, hazards, police traps, and more.<br/>\xe2\x9c\x93 Complete voice-guided navigation.<br/>\xe2\x9c\x93 Automatic re-routing as conditions on the road change.<br/>\xe2\x9c\x93 Learns your frequent destinations, commuting hours and preferred routes.<br/>\xe2\x9c\x93 Find the cheapest gas station on your route. <br/>\xe2\x9c\x93 Redeem Wazer-only gas specials at participating gas stations. (currently in the US only)<br/>\xe2\x9c\x93 Meet-up! Share your location/destination and ETA to easily meet up with friends.<br/>\xe2\x9c\x93 Join or create groups to share info about your commute.<br/>\xe2\x9c\x93 Earn points and move up the ranks in your community as you contribute road info.<br/>\xe2\x9c\x93 Live maps, constantly updated by Waze community map editors.<br/><br/>Drive safe! Waze is hands-free and voice-operated. By simply driving around with Waze open, you're already contributing real-time traffic &amp; road info to other Wazers nearby. <br/><br/>It's all about contributing to, and benefiting from, the 'common good' out there on the road, so hop on board, and get involved in your local driving community today!<br/><br/>Note: Continued use of GPS running in the background can dramatically decrease battery life.</p>"
p4
sS'appid'
p5
S'323229106'
p6
s.