(dp0
S'title'
p1
VSpotify
p2
sS'description'
p3
S'<p>Spotify gives you instant access to millions of songs on your iPhone, iPad &amp; iPod Touch.<br/><br/>With the Spotify app, you can choose to listen for free, or subscribe to Spotify Premium.<br/><br/>Free radio: US only<br/><br/>US users can listen to radio for free. Discover and save music on the go! If your station plays a song you really like, save it with a single tap. Unlimited songs and stations - listen forever!<br/><br/>Try Spotify Premium for free<br/><br/>If you haven\xe2\x80\x99t tried Premium before, you can try it for 48-hours, completely free. Just download the app and log in using your Facebook account*. \xe2\x80\xa8After your trial, you can still listen to your own music, or subscribe to...<br/><br/>Spotify Premium<br/><br/>Premium is the top-of-the-range Spotify experience. Now you can sync all your favourite playlists to your phone and listen offline. Or go online and stream anything you like from the Spotify library. It\xe2\x80\x99s access all areas with Premium.<br/><br/>Praise for Spotify <br/>\xe2\x80\xa8- "Spotify is so good" \xe2\x80\x93 Mark Zuckerberg - CEO and Founder of Facebook \xe2\x80\xa8<br/>- "The celestial jukebox is no pipe dream; it\xe2\x80\x99s here now."- Time <br/>\xe2\x80\xa8- "Spotify makes music fun again, just like the iPod did nearly 10 years ago." \xe2\x80\x93 Billboard.biz \xe2\x80\xa8<br/><br/>Spotify Premium features \xe2\x80\xa8<br/>\xe2\x80\xa2 Instant access to millions of songs \xe2\x80\xa8<br/>\xe2\x80\xa2 Stream online \xe2\x80\xa8<br/>\xe2\x80\xa2 Listen offline \xe2\x80\x93 no mobile connection needed \xe2\x80\xa8<br/>\xe2\x80\xa2 Share music with your friends \xe2\x80\xa8<br/>\xe2\x80\xa2 Star your favourite tracks \xe2\x80\xa8<br/>\xe2\x80\xa2 Wirelessly sync your own music to your iPhone, iPod Touch &amp; iPad \xe2\x80\xa8<br/>\xe2\x80\xa2 Create and sync playlists \xe2\x80\xa8<br/>\xe2\x80\xa2 Send the music you\xe2\x80\x99re enjoying direct to Last.fm &amp; Facebook<br/><br/>Love Spotify? <br/><br/>Like us on Facebook: http://www.facebook.com/spotify <br/>Follow us on Twitter: http://twitter.com/spotify</p>'
p4
sS'appid'
p5
S'324684580'
p6
s.