(dp0
S'title'
p1
VGeared
p2
sS'description'
p3
S'<p>\xe2\x98\x85 Ranked #1 Paid Game in 53 countries now FREE!<br/>\xe2\x98\x85 Over 18 Million downloads of Geared, Geared 2!<br/>\xe2\x98\x85 4.5 star rating with expansive content updates!<br/><br/>TOUCHARCADE - "An excellent puzzle game"<br/>GAMEPRO - "A beautifully designed game"<br/>G4TV - "A challenging and inventive puzzle game."<br/><br/><br/>Geared is a radically new and innovative puzzle game; a unique addition to its genre.  <br/><br/>The first and only Gear-based game with absolutely no snap-grid.  Geared delivers complete and total freedom to the player, bestowing every puzzle with a near infinite array of choices.  <br/><br/>Pit your intellect against 200 uniquely designed levels, original to this game. <br/><br/>FEATURES (v2.0.7):<br/>- 200 levels of addictive gameplay.<br/>- 200 solutions for when you get stuck! <br/>- Add extra Gears to your inventory!<br/>- Remove troubling no-drop zones!<br/>- Varying difficulty; Easy to near-impossible.<br/>- Reset level button<br/>- Level selection menu.<br/>- Progress is saved automatically.<br/>- Original sound effects.<br/><br/>\xe2\x98\x85 Featured in New and Noteworthy. \xe2\x98\x85 <br/>\xe2\x98\x85 Featured in What\'s Hot.  <br/>\xe2\x98\x85 Featured in Awesome iOS 4 Apps. \xe2\x98\x85<br/><br/>- iOS 5 Tested and Qualified!</p>'
p4
sS'appid'
p5
S'325793558'
p6
s.