(dp0
S'title'
p1
VMotionX GPS Drive
p2
sS'description'
p3
S'<p>The #1 Rated iPhone and iPad navigation solution.<br/><br/>\xe2\x98\x85\xe2\x98\x85\xe2\x98\x85\xe2\x98\x85\xe2\x98\x85 MotionX-GPS Drive named "Best iPhone 5 App for Drivers" by Total Car Score<br/><br/>\xe2\x98\x85\xe2\x98\x85\xe2\x98\x85\xe2\x98\x85\xe2\x98\x85 "Hands-down my favorite navigator for the iPhone" -Andy Ihnatko, Chicago Sun-Times<br/><br/>\xe2\x98\x85\xe2\x98\x85\xe2\x98\x85\xe2\x98\x85\xe2\x98\x85 "My favorite is MotionX GPS Drive." - Dave Caolo, The Unofficial Apple Weblog (TUAW)<br/><br/>\xe2\x98\x85\xe2\x98\x85\xe2\x98\x85\xe2\x98\x85\xe2\x98\x85 "packed with features..." -Walt Mossberg, The Wall Street Journal<br/><br/>\xe2\x98\x85\xe2\x98\x85\xe2\x98\x85\xe2\x98\x85\xe2\x98\x85 "Hands-Down the Best Value in GPS Apps" -Gizmodo.com<br/><br/>\xe2\x98\x85\xe2\x98\x85\xe2\x98\x85\xe2\x98\x85\xe2\x98\x85 "The only GPS system required for driving or walking." \xc2\xad\xc2\xad\xc2\xad\xc2\xad\xc2\xad\xc2\xad\xc2\xad\xc2\xad\xc2\xad- Greg Dawson, AppCraver <br/><br/>\xe2\x98\x85\xe2\x98\x85\xe2\x98\x85\xe2\x98\x85\xe2\x98\x85 About.com Readers\' Choice Award Winner: Best Auto Navigation App<br/><br/>LIMITED TIME OFFER: One year of Voice Guidance now 60% off, only $9.99!<br/>____________________________________ <br/>The Best and Easiest Driving &amp; Walking GPS, Always Live, Always Up-to-Date<br/><br/>For less than $1 per month: <br/>\xe2\x9c\x94 Map data is always up-to-date <br/>\xe2\x9c\x94 Real-time and predictive traffic-based routing and guidance<br/>\xe2\x9c\x94 Best INRIX traffic with free live traffic flow maps <br/>\xe2\x9c\x94 Full support for portrait and landscape mode <br/>\xe2\x9c\x94 Visual lane assistance for complex intersections and freeway junctions<br/>\xe2\x9c\x94 Live local speed limits displayed with the car\'s actual speed<br/>\xe2\x9c\x94 Multi-stop planning and routing<br/>\xe2\x9c\x94 Pre-load maps for offline use<br/>\xe2\x9c\x94 Multiple voice choices including fun options and HD synthesized voices<br/>\xe2\x9c\x94 Facebook and Twitter integration<br/>\xe2\x9c\x94 Local Search and Wikipedia integration for rich and up-to-date content<br/>\xe2\x9c\x94 Urban route planning with pedestrian navigation<br/>\xe2\x9c\x94 Live compass<br/>\xe2\x9c\x94 Parking spot marker<br/>\xe2\x9c\x94 Fast easy download from your iPhone or iPad! <br/><br/>Complete U.S. and Canada Coverage. <br/>____________________________________ <br/>Includes 30 Days of free Real-time Turn-by-Turn Navigation with Live Voice Guidance and live INRIX traffic <br/><br/>\xe2\x9c\x94 After the 30 day period, continue using real-time navigation any time by making an in-app purchase. Choose either 30-days or 1-year.<br/>\xe2\x9c\x94 Access purchases on multiple iPhones or iPads for households with multiple users<br/>\xe2\x9c\x94 In-app purchases are non-recurring with no automatic charges<br/><br/>Live Voice Guidance gives you: <br/>\xe2\x9c\x94 Real-time turn-by-turn voice guidance with high-quality spoken street names, fully integrated with the iPhone music player<br/>\xe2\x9c\x94 Live over-the-air maps and real-time navigation<br/>\xe2\x9c\x94 Cached routes and maps for optimal performance<br/>\xe2\x9c\x94 Predictive live traffic for optimal routing<br/>\xe2\x9c\x94 Details about traffic incidents, construction, and events<br/><br/>Please note the core application provides a great driving experience without any further purchase, including full access to search, routing, 3D maps, and pedestrian navigation tools.<br/>___________________________________ <br/><br/>MotionX uses the latest NAVTEQ maps, Bing search, and live predictive traffic information from INRIX to deliver the most complete navigation solution designed exclusively for the iPhone. <br/><br/>MotionX-GPS Drive is compatible with the iPhone and iPad Wi-Fi + Cellular models. iPod touch and iPad models without cellular/GPS capability require an external GPS receiver. <br/><br/>Continued use of any GPS service running in the background can significantly decrease battery life. <br/>____________________________________ <br/>MotionX is committed to passing on to our customers the best possible pricing for guidance services and turn-by-turn routing. We ourselves must pay the Map and traffic suppliers and therefore must charge a minimum fee for this service. We focus on providing the best value for quality information. <br/><br/>MotionX is committed to constant improvement. We listen to our users and continuously add the most requested features.</p>'
p4
sS'appid'
p5
S'328095974'
p6
s.