(dp0
S'title'
p1
VGAMEBOX 1
p2
sS'description'
p3
S'<p>40 HIGHLY PRAISED GAMES, ALL-IN-1 APP! <br/>includes JAILBREAKER, iSNIPER 3D, AC-130, DINO CAP and MORE! <br/><br/>\xe2\x98\x85\xe2\x98\x85\xe2\x98\x85\xe2\x98\x85\xe2\x98\x85 <br/><br/>OVER 2.5 MILLION COPIES SOLD! <br/><br/>ranked #7 TOP PAID APP in apple\'s \'REWIND 2010\'! <br/><br/>\xe2\x98\x85\xe2\x98\x85\xe2\x98\x85\xe2\x98\x85\xe2\x98\x85 <br/><br/>"some of the highest replay value I have seen..." <br/>-AppModo.com [http://bit.ly/reviewappmodo] <br/><br/>"super addictive and fun..." <br/>-AppSafari.com [http://bit.ly/reviewbyappsafari] <br/><br/>"GameBox is like a box of crayons ... you\'re guaranteed to find a few games that are just right for you." <br/>-GamesRadar.com [http://bit.ly/reviewgamesradar] <br/><br/>\xe2\x98\x85\xe2\x98\x85\xe2\x98\x85\xe2\x98\x85\xe2\x98\x85 <br/><br/>WHAT\'S INSIDE GAMEBOX? <br/><br/>all of the games below, FULL VERSION, FULL FEATURE! <br/><br/>\xe2\x98\x85\xe2\x98\x85\xe2\x98\x85\xe2\x98\x85\xe2\x98\x85 <br/><br/>AC-130 Spectre [3D WARFARE SIM] [YOUTUBE: bit.ly/ac130spectre] <br/><br/>Ada\'s Fashion Show [TIME MANAGEMENT] <br/><br/>Ada\'s Hospital [TIME MANAGEMENT] [YOUTUBE: bit.ly/adashospital] <br/><br/>Ancient War [WI-FI MULTIPLAYER CASTLE DEFENSE] [YOUTUBE: bit.ly/ancientwar] <br/><br/>Archer 3D [3D SPORTS SIM] <br/><br/>1945 Ace Destroyer [inspired by SKY DESTROYER\xe2\x84\xa2] <br/><br/>Blaster Tank [SIDE-SCROLLING TANK WARFARE] <br/><br/>Blighted Earth [TOWER DEFENSE] <br/><br/>Bowman Attack [STRATEGIC ARTILLERY WARFARE] [YOUTUBE: bit.ly/bowmanattack] <br/><br/>Bowman Defense [CASTLE DEFENSE] [YOUTUBE: bit.ly/bowmandefense] <br/><br/>Bubble Master [inspired by BUBBLE TROUBLE\xe2\x84\xa2] <br/><br/>Chicks [ACTION/PUZZLE] [YOUTUBE: bit.ly/chicksgame] <br/><br/>Climber [inspired by SHENKUU WARRIOR\xe2\x84\xa2] <br/><br/>Digital Heist [ACTION/PUZZLE] <br/>Grab the loot and get out! <br/><br/>Dino Cap [SIDE-SCROLLING SHOOT \'EM UP] [YOUTUBE: bit.ly/dinocap] <br/><br/>Doodle Fish [ARCADE] <br/>Eat your way to the top of the food chain, and grow to be king of the sea! <br/><br/>Fit It! [PUZZLE] <br/>Take the pieces you have and make them into a square! <br/><br/>Get Rich [ARCADE] <br/>Money is raining from the sky. Catch as much you can! <br/><br/>Hell Flyer [ARCADE] <br/>Swing from one stalactite to the next &amp; avoid the lava below! <br/><br/>Hot Pursuit [TOP-DOWN ARCADE RACER] <br/>Time for some high-caliber road rage! <br/><br/>Hired Gun [CARTOON SNIPER] <br/><br/>iKungFu Master [inspired by KUNG-FU MASTER\xe2\x84\xa2] <br/><br/>iPuppy Husky [3D PUPPY SIM] <br/><br/>Iron Commando [RETRO PLATFORMER] [YOUTUBE: bit.ly/ironcommando] <br/><br/>iSniper [ARCADE] <br/>The best-selling iPhone original! <br/><br/>iSniper 3D [3D WARFARE SIM] [YOUTUBE: bit.ly/isniper3dgame] <br/><br/>iUFO Catcher [ARCADE] <br/>It\'s the claw! Grab as many furry prizes as you can! <br/><br/>Jailbreaker [SIDE-SCROLLING JUMPER] <br/>The 5-0 is on your trail! See how far you can run in this thrilling twitch-tapper! <br/><br/>321! Jump! [JUMPING PLATFORMER] <br/>Jump from block to block, but don\'t fall down!<br/><br/>Knight\'s Odyssey [ACTION] <br/>Fight through a sea of armored enemies in this epic journey.<br/><br/>Motocross Trixx [PHYSICS/ACTION]<br/>Hop on your bike, rev your motor, hit that jump, and get some air!  <br/><br/>Neander Block [inspired by BEJEWELED\xe2\x84\xa2] [YOUTUBE: bit.ly/neanderblock] <br/><br/>Observer [PUZZLE] <br/>Spot the difference! <br/><br/>Operation iWolf [inspired by OPERATION WOLF\xe2\x84\xa2] <br/><br/>2009 Road Master [inspired by ROAD FIGHTER\xe2\x84\xa2] <br/><br/>Robo Rush [RETRO PLATFORMER] [YOUTUBE: bit.ly/roborush] <br/><br/>Star Marine [inspired by CRIMSONLAND\xe2\x84\xa2] <br/><br/>Super Crazy Wars [ACTION/STRATEGY] <br/><br/>The Sudoku Times [SUDOKU] <br/><br/>Tomb Evader [ARCADE] <br/>Escape before the pyramid collapses! <br/><br/>\xe2\x98\x85\xe2\x98\x85\xe2\x98\x85\xe2\x98\x85\xe2\x98\x85 <br/><br/>\xe2\x96\xb6 http://twitter.com/TRINITIgames <br/>\xe2\x96\xb6 http://facebook.com/TRINITIgames</p>'
p4
sS'appid'
p5
S'330759313'
p6
s.