(dp0
S'title'
p1
VCNN App for iPhone
p2
sS'description'
p3
S'<p>CNN connects you to the world, wherever you are.  <br/><br/>Stay informed with the latest headlines and original stories from around the globe. Follow up-to-the-minute reporting with breaking news alerts and live video. Lead the conversation by sharing news and dig deeper into the stories that matter most to you.  <br/><br/>\xe2\x80\xa2 Get breaking news alerts and follow stories as they develop.<br/>\xe2\x80\xa2 Go beyond the surface with international, politics, opinion, tech and entertainment stories and more.<br/>\xe2\x80\xa2 Watch video clips and coverage of live events as they unfold. View your favorite CNN shows LIVE (as available; check with your cable, satellite or telco provider).*<br/>\xe2\x80\xa2 Contribute your story or opinion to CNN iReport by uploading photos and video directly from your app. Follow other iReporters and see stories from their point of view. <br/>\xe2\x80\xa2 Choose the font size that most appeals to you.<br/><br/>* Make sure your phone is not on vibrate and the volume is turned up for the best possible video experience.<br/><br/>Have questions or feedback on the CNN App? E-mail us at iPhone@cnn.com. We are always looking for suggestions on how to provide the best experience possible for you.<br/></p>'
p4
sS'appid'
p5
S'331786748'
p6
s.