(dp0
S'title'
p1
VAlarm Clock Free
p2
sS'description'
p3
S'<p>Alarm Clock Free turns your iPhone or iPod touch into a beautiful digital clock and alarm clock for free! It even displays live, local weather conditions and temperature that makes you know about the weather immediately when you wake up.<br/><br/>\xe2\x98\x85 New feature \xe2\x98\x85 <br/>\xe2\x80\xa8- iOS 5 Users: now you can shake-to-snooze when alarm goes off, without having to unlock screen or enter password.<br/><br/>\xe2\x98\x85\xe2\x98\x85\xe2\x98\x85\xe2\x98\x85\xe2\x98\x85\xe2\x98\x85\xe2\x98\x85\xe2\x98\x85\xe2\x98\x85\xe2\x98\x85\xe2\x98\x85\xe2\x98\x85\xe2\x98\x85\xe2\x98\x85\xe2\x98\x85\xe2\x98\x85\xe2\x98\x85\xe2\x98\x85\xe2\x98\x85\xe2\x98\x85\xe2\x98\x85\xe2\x98\x85\xe2\x98\x85\xe2\x98\x85\xe2\x98\x85<br/>If you enjoy Alarm Clock Free, there is a paid version "Alarm Clock Pro" with more features:<br/>- Set your own song or playlist as alarm<br/>- More colorful themes<br/>- Built-in flashlight<br/><br/>Alarm Clock Pro is currently on sale with 50% off and  is in top 10 paid apps in more than 30 countries.<br/>\xe2\x98\x85\xe2\x98\x85\xe2\x98\x85\xe2\x98\x85\xe2\x98\x85\xe2\x98\x85\xe2\x98\x85\xe2\x98\x85\xe2\x98\x85\xe2\x98\x85\xe2\x98\x85\xe2\x98\x85\xe2\x98\x85\xe2\x98\x85\xe2\x98\x85\xe2\x98\x85\xe2\x98\x85\xe2\x98\x85\xe2\x98\x85\xe2\x98\x85\xe2\x98\x85\xe2\x98\x85\xe2\x98\x85\xe2\x98\x85\xe2\x98\x85<br/><br/>**********************************************************<br/>In less than 2 weeks of launching, it\'s now the #1 Utility App across 30+ countries:<br/><br/>#1 in United States<br/>#1 in United Kingdom<br/>#1 in Germany<br/>#1 in Canada<br/>...<br/><br/>You can hear from our fans all over the world: <br/><br/>"Yeah!! Now I use this app to wake me up. It\'s cool!"<br/><br/>"Whenever I charge my iPhone on the dock, I run this app simply for its gorgeous LCD display! Love it!!!"<br/><br/>"Simply the best the clock app on the app store! "<br/><br/>"I\'ve added this app to the first page on my iPod touch. It\'s a perfect alarm clock, easy to use with very sleek graphics. And it works wonderfully even when your iPod/iPhone is in sleep mode!"<br/><br/>Thanks to all our great users!<br/><br/>**********************************************************<br/><br/>Features include:<br/><br/>\xe2\x98\x85 Clock \xe2\x98\x85<br/>- Gorgeous green LCD style display<br/>- Vertical and horizontal modes<br/>- 12 or 24 hour format<br/>- Show/Hide seconds<br/>- Customizable auto-lock time<br/><br/>\xe2\x98\x85 Alarm \xe2\x98\x85<br/>- Super big Snooze/Stop Alarm buttons<br/>- Multiple alarms supported<br/>- 11 built-in alarm sounds: Ascending, Birds, Classic, Cuckoo, Digital, Electronic, High Tone, Mbira, Old Clock, Rooster, School Bell<br/>- Sound ON/OFF, <br/>- Sound volume adjustable<br/>- Snooze ON/OFF<br/>- Snooze time customizable<br/>- Vibrate ON/OFF<br/>- Sound Fade In: Wake up gently in the morning<br/>- Alarm works even when the screen is locked or if your iPhone/iPod touch is in silent mode<br/>- Background Alarm: you will receive sound notification alarms even when the app is not running!  <br/> <br/>\xe2\x98\x85 Weather \xe2\x98\x85<br/>- Display weather conditions and temperature in your area<br/>- Automatically find your local weather, no need to search through lists of cities<br/>- Support both Fahrenheit and Celsius display<br/>- Detailed weather info: wind, humidity, and "feels like" temperature<br/><br/>\xe2\x98\x85 Tips \xe2\x98\x85<br/>- Slide/flick up and down to dim the screen<br/>- Shake-to-snooze when alarm goes off (iOS 5 required)<br/><br/>Enjoy another free app from iHandySoft!</p>'
p4
sS'appid'
p5
S'332064280'
p6
s.