(dp0
S'title'
p1
VPool
p2
sS'description'
p3
S'<p>Play 8-ball pool on your mobile device against your friend.<br/><br/>The object of the game is to pocket your set of assigned balls (solid or striped) and finally pocket black ball to designated pocket.<br/><br/>Game features:<br/><br/>- one or two players modes<br/>- for left and right hands<br/>- real 3D ball animation<br/>- hint for precise aiming<br/><br/>Good luck and enjoy the game!</p>'
p4
sS'appid'
p5
S'332184886'
p6
s.