(dp0
S'title'
p1
VcPRO+ craigslist client with Notifications for iPhone and iPod
p2
sS'description'
p3
S'<p>cPRO+ features an intuitive interface and essential set of features to browse and post to Craigslist.  It also includes Search Agents that run your Craigslist searches in the background even after you exit cPRO+ and notify you of new matches.<br/><br/>\xe2\x98\x85\xe2\x98\x85\xe2\x98\x85\xe2\x98\x85\xe2\x98\x85 Officially Licensed by Craigslist \xe2\x98\x85\xe2\x98\x85\xe2\x98\x85\xe2\x98\x85\xe2\x98\x85<br/><br/>\xe2\x98\x85\xe2\x98\x85\xe2\x98\x85\xe2\x98\x85\xe2\x98\x85 Apple: One of the Best Apps of the Year \xe2\x98\x85\xe2\x98\x85\xe2\x98\x85\xe2\x98\x85\xe2\x98\x85<br/><br/>"iPhone users have a secret weapon in CraigsPro+, which lets you search Craigslist much more easily than the Web site, and it offers a handful of other great features." <br/>-- Bob Tedeschi, The NY Times<br/><br/>"CraigsPro+. The entire world of Craigslist in the palm of your hand, with all gazillion listings: antiques, real estate, job openings."<br/>-- House Beautiful Magazine<br/><br/>"All of the features of Craigslist, but with a search agent option that notifies you of new results that match your terms."<br/>-- Forbes.com<br/><br/>BROWSING:<br/>\xe2\x80\xa2 simultaneous MULTI-CITY searches<br/>\xe2\x80\xa2 MAP BROWSER<br/>\xe2\x80\xa2 PHOTO GALLERY <br/>\xe2\x80\xa2 GPS-based AUTO-LOCATION <br/>\xe2\x80\xa2 search results with PHOTOS and listing previews<br/>\xe2\x80\xa2 zoomable FULL-SCREEN PHOTOS<br/>\xe2\x80\xa2 all Craigslist cities, states, countries and continents<br/>\xe2\x80\xa2 enhanced 20+ SEARCH OPTIONS tailored to different search categories - for sale, housing, jobs, gigs, etc<br/>\xe2\x80\xa2 NEIGHBORHOOD support in metropolitan areas<br/>\xe2\x80\xa2 TIME SINCE POSTED indicators<br/>\xe2\x80\xa2 REFRESH results directly from the results view page<br/>\xe2\x80\xa2 Best of Craigslist!<br/><br/>POSTING:<br/>\xe2\x80\xa2 Over 1,000,000 successfully posted ads with the use of the app!<br/>\xe2\x80\xa2 POST a Craigslist ad directly from CraigsPro+ <br/>\xe2\x80\xa2 post from MULTIPLE Craigslist ACCOUNTS<br/>\xe2\x80\xa2 take pictures with your CAMERA or use photos from your PHOTO ALBUMS<br/>\xe2\x80\xa2 full-fledged Craigslist ACCOUNT MANAGEMENT including REPOSTING with photos, editing, and deleting/undeleting posted ads<br/><br/>BOOKMARKS:<br/>\xe2\x80\xa2 save/bookmark FAVORITE Craigslist ads <br/>\xe2\x80\xa2 add NOTES to your FAVORITE ads to keep track of your discussions with posters<br/>\xe2\x80\xa2 save FULLY-CONFIGURED searches<br/>\xe2\x80\xa2 EDIT saved searches<br/>\xe2\x80\xa2 a TRACKING SYSTEM for saved searches with new match  indicators<br/>\xe2\x80\xa2 HISTORY of searches.  REPEAT a search by tapping the \'bookmarks\' button<br/><br/>COMMUNICATIONS:<br/>\xe2\x80\xa2 REPLY to posters by email<br/>\xe2\x80\xa2 CALL posters directly from CraigsPro<br/>\xe2\x80\xa2 EMAIL / TEXT a listing to a FRIEND<br/>\xe2\x80\xa2 attach PHOTOS to replies<br/>\xe2\x80\xa2 share Craigslist ads on TWITTER<br/>\xe2\x80\xa2 MAPS and DIRECTIONS to the posted location<br/><br/>EXTRAS:<br/>\xe2\x80\xa2 PHOTO WALL with matching results listed as photos<br/>\xe2\x80\xa2 ALREADY SEEN listing indicators (green checkmarks)<br/>\xe2\x80\xa2 TIME SINCE POSTED indicators<br/>\xe2\x80\xa2 FLAG inappropriate and best-of-craigslist ads<br/>\xe2\x80\xa2 save posted photos to your PHOTO ALBUMS<br/>\xe2\x80\xa2 SORT results by date, best match, or low/high price<br/>\xe2\x80\xa2 ORIGINAL listing web page<br/>\xe2\x80\xa2 results with DATE, LOCATION, and PRICE <br/>\xe2\x80\xa2 PIN code lock protection<br/><br/>*********************<br/><br/>SEARCH AGENTS:<br/>\xe2\x80\xa2 fully configurable MULTI-CITY search agents<br/>\xe2\x80\xa2 register any of your searches as a SEARCH AGENT<br/>\xe2\x80\xa2 search agents keep checking Craiglist until a new listing matching the search criteria is posted (even after you exit cPRO+)<br/>\xe2\x80\xa2 new match INDICATORS<br/>\xe2\x80\xa2 search agents NOTIFY you of new matches using SOUND alerts, vibration, and/or the number of new hits displayed on top of the app icon<br/>\xe2\x80\xa2 Register up to 15 Search Agents simultaneously searching in up to 10 cities each<br/>\xe2\x80\xa2 NEW: Unlimited notifications<br/><br/>*********************<br/><br/>cPRO+ results are always identical to Craigslist.  You have the power of 20+ cPRO+ search options to narrow down the search to what you are interested in.<br/><br/>*********************<br/><br/>Continued use of GPS running in the background can dramatically decrease battery life. <br/><br/>Questions?<br/>Suggestions? <br/>PLEASE EMAIL us at craigspro.app@gmail.com<br/><br/>The craigslist and associated trademarks are owned by craigslist, Inc. and are being used under licensed permission from craigslist, Inc. for a limited purpose. www.craigslist.org</p>'
p4
sS'appid'
p5
S'332324766'
p6
s.