(dp0
S'title'
p1
VTwitter
p2
sS'description'
p3
S'<p>Wherever you are, Twitter brings you closer.<br/><br/>*Essential<br/>An organized stream of Tweets that delivers the best content to you.<br/><br/>*Instant<br/>All the media, news, events, and information you need.<br/><br/>*Personal<br/>Your world, expressed in Tweets and photos.<br/><br/>Search in real time. Follow people you\xe2\x80\x99d like to know. Watch rising trends.</p>'
p4
sS'appid'
p5
S'333903271'
p6
s.