(dp0
S'title'
p1
VWalgreens
p2
sS'description'
p3
S'<p>PASSBOOK <br/>\xe2\x80\xa2 Users who have upgraded to iOS 6 can now connect their Balance\xe2\x84\xa2 Rewards account to Passbook<br/>\xe2\x80\xa2 Create a Balance\xe2\x84\xa2 Rewards account, log in and add your rewards card to Passbook <br/>\xe2\x80\xa2 Select your preferred Walgreens location and when you\xe2\x80\x99re near that store, Passbook will display your Balance\xe2\x84\xa2 Rewards card<br/><br/>REWARDS PROGRAM FEATURES<br/>\xe2\x80\xa2 Introducing Balance\xe2\x84\xa2 Rewards from Walgreens<br/>\xe2\x80\xa2 Save, earn, redeem, in store and online<br/>\xe2\x80\xa2 Get exclusive pricing as a member<br/><br/>PHARMACY FEATURES<br/>\xe2\x80\xa2 Refill by Scan* - Simply scan the barcode on your prescription bottle for instant refills<br/>\xe2\x80\xa2 Pill Reminders \xe2\x80\x93 Schedule reminders on your app to take your medication<br/>\xe2\x80\xa2 Refill Reminders \xe2\x80\x93 Sign up to get Rx Text Alerts to know when it\xe2\x80\x99s time to refill your prescriptions<br/><br/>PHOTO FEATURES <br/>\xe2\x80\xa2 QuickPrints \xe2\x80\x93 Choose pictures from your iPhone albums to print and pick up at your local Walgreens in about an hour\xe2\x80\x94no log-in or account required<br/>\xe2\x80\xa2 Print from Facebook \xe2\x80\x93 Select photos from your Facebook albums to print and pick up at your local Walgreens in about an hour<br/>\xe2\x80\xa2 PrintWorthy \xe2\x80\x93 Create and print a PrintWorthy card using a photo from your Facebook albums with likes and comments<br/><br/>SHOPPING FEATURES<br/>\xe2\x80\xa2 Coupons &amp; Offers - Access multiple exclusive mobile offers with the Mobile Coupons feature and view local weekly offers in our Weekly Ad<br/>\xe2\x80\xa2 In Store Maps \xe2\x80\x93 Use your Shopping List to map and find items on a Walgreens store map<br/>\xe2\x80\xa2 Barcode and QR Code Scanner - Learn more about our products by scanning product barcodes or QR codes from our paper Weekly Ads<br/><br/>There is no charge to download the Walgreens app, but specified rates from your wireless provider and other fees as noted in your Walgreens account agreement(s) still apply. <br/><br/>* Available only on iPhone\xc2\xae 4, 4S and iPhone\xc2\xae 3GS (iOS 4.3.5 and above).</p>'
p4
sS'appid'
p5
S'335364882'
p6
s.