(dp0
S'title'
p1
VAlarm Clock Pro
p2
sS'description'
p3
S'<p>Alarm Clock Pro turns your iPhone or iPod touch into a beautiful digital clock with gorgeous themes and an alarm clock that sings your favorite tunes. There is even a built-in flashlight to light up the darkness! <br/><br/>No.1 Top Paid Utilities App of App Store Rewind 2011!<br/><br/>\xe2\x98\x85 New feature \xe2\x98\x85 <br/>- iOS 5 Users: now you can shake-to-snooze when alarm goes off, without having to unlock screen or enter password.<br/><br/>************************************************** <br/><br/>Now it\'s the No.1 top paid utility app across 30+ countries!!! <br/><br/>This is the ultimate alarm clock app you\'ve been waiting for -- Alarm Clock Pro! <br/><br/>- Choose your favorite iPod music or playlist to wake you up <br/>- Select from gorgeous designer themes, big LCD display and more coming <br/>- Turn the clock into a flashlight instantly <br/>- Fall asleep to relaxing songs, podcasts and even audiobooks.<br/><br/><br/>All the features that you required are here. So why wait? Grab it now while the sale is still on! <br/><br/>************************************************** <br/><br/>Features: <br/><br/>\xe2\x98\x85 Clock \xe2\x98\x85 <br/>- Gorgeous color LCD display: Blue, Cyan, Green, Orange, Pink, Red and Yellow <br/>- Vertical and horizontal modes <br/>- 12 or 24 hour format <br/>- Show/Hide seconds <br/>- Customizable auto-lock time <br/><br/>\xe2\x98\x85 Alarm \xe2\x98\x85 <br/>- Select your song or even playlist as alarm <br/>- 11 built-in alarm sounds: Ascending, Birds, Classic, Cuckoo, Digital, Electronic, High Tone, Mbira, Old Clock, Rooster, School Bell <br/>- Super big Snooze/Stop Alarm buttons <br/>- Multiple alarms supported <br/>- Sound/Music ON/OFF <br/>- Sound/Music volume adjustable <br/>- Snooze ON/OFF <br/>- Snooze time customizable <br/>- Vibrate ON/OFF <br/>- Sound/Music Fade In: Wake up gently in the morning! <br/>- Background Alarm: you will receive sound notification alarms even when the app is not running! <br/><br/>\xe2\x98\x85 Sleep Timer \xe2\x98\x85<br/>- Create your own playlist with songs, podcasts or audiobooks<br/>- Shuffle playlist<br/>- Music/Sounds gently fade out when time is up<br/><br/>\xe2\x98\x85 Live weather conditions and 4-day weather forecast \xe2\x98\x85 <br/>- Display weather conditions and temperature in your area <br/>- Automatically find your local weather, no need to search through lists of cities <br/>- Support both Fahrenheit and Celsius display <br/>- Display 4-day weather forecast of your location<br/>- Detailed weather info: wind, humidity, and "feels like" temperature <br/> <br/>\xe2\x98\x85 Flashlight \xe2\x98\x85 <br/>- Shake iPhone to toggle the flashlight <br/><br/>\xe2\x98\x85 Tips \xe2\x98\x85 <br/>- Slide/flick up and down to dim the screen <br/>- Shake to toggle the flashlight <br/><br/>Buy it now before the price goes up and enjoy the FREE updates!</p>'
p4
sS'appid'
p5
S'335678373'
p6
s.