(dp0
S'title'
p1
VTap Farm
p2
sS'description'
p3
S'<p>Welcome to Tap Farm \xe2\x80\x93 you are just one tap away from owning a farm where you decide what seeds will grow into the most bountiful harvest of cashcrops. <br/><br/>Plant crops that grow as time passes and harvest them to earn more coins and build up your estate. The more you plow, seed and sell your crops for coins, the more you increase the value of your farm, and your value as a farmer. More coins and more farming experience enables you to expand the plots of land you own and increases your ability to enrich your farm with a variety of seeds, animals, trees and buildings.<br/><br/>You can also visit real neighbors to see how others have built up their farms.  <br/>You are just minutes away from planting your first seeds and reaping the rewards of your first harvest, so giddy-up, farmer!  </p>'
p4
sS'appid'
p5
S'335934881'
p6
s.