(dp0
S'title'
p1
VCall of Duty: Zombies
p2
sS'description'
p3
S"<p>Four Massive Zombie Maps. One Great New Price. Now includes the ALL-NEW fan favorite, Der Riese, the largest, most feature-rich Zombie map to date. This is the ultimate Co-op experience for the iPhone/iPod Touch!<br/><br/>\xe2\x80\x9cDer Riese\xe2\x80\x9d (Zombie Factory) features:<br/>\xe2\x80\xa2The all-new Pack A Punch Machine allows you to upgrade ANY of your weapons: Increased Firepower, More Ammo, and a new Metal Finish.<br/>\xe2\x80\xa2New Teleporters allow you and your team to zip around this enormous map and evade the oncoming Zombie Horde.<br/>\xe2\x80\xa2The Bowie Knife allows to you take down higher level zombies in one quick blow.<br/>\xe2\x80\xa2Favorites such as the Hell Hounds, the Wunderwaffe lightning gun, and the Perks-a-Cola Machines return.<br/>\xe2\x80\xa2The online 4-player co-op action you've come to expect returns with even more intensity.<br/><br/>\xe2\x80\x9cShi No Numa\xe2\x80\x9d (Zombie Swamp) features:<br/>\xe2\x80\xa2Shi No Numa is a hauntingly beautiful environment filled with terrifying zombies, weapons, and zombie traps.<br/>\xe2\x80\xa2New weapons featuring the Wunderwaffe DG-2. Fry hordes of zombies with a single blast from this shockingly powerful new weapon.<br/>\xe2\x80\xa2Survive the Hellhounds! Ferocious and fast, the Hellhounds will test your reflexes and your team's ability to work together.<br/>\xe2\x80\xa2New playable characters! Play as Tank Dempsey (US), Takeo Masaki (Japan), Nikolai Belinski (USSR), and the infamous Dr. Richtofen (Germany).<br/>\xe2\x80\xa2New Zombie traps including the Flogger for massive Zombie destruction and the Zipline for quick getaways.<br/><br/>Call of Duty: Zombies also includes:<br/>\xe2\x80\xa2\xe2\x80\x9cVerr\xc3\xbcckt\xe2\x80\x9d (Zombie Asylum): Dare to enter the insane asylum and fend off the Zombie onslaught alone or with friends. Use electric traps to keep the zombies at bay.<br/>\xe2\x80\xa2\xe2\x80\x9cNacht der Untoten\xe2\x80\x9d: The original zombie map returns in all its glory. Fight to survive in the abandoned bunker that started the zombie phenomenon.<br/><br/>About Call of Duty: Zombies:<br/>Call of Duty: Zombies brings the classic Call of Duty: World at War zombie-slaying game mode to the iPhone\xe2\x84\xa2 and iPod\xc2\xae Touch.  Featuring ALL 4 Zombie maps, you\xe2\x80\x99ll need to bring along your friends to help push back the endless waves of attacking zombies!<br/><br/>Highlights include:<br/><br/>- Call of Duty: Zombies for the iPhone\xe2\x84\xa2 supports up to four players via Wi-Fi/Internet and two players via Bluetooth.  Play with your friends in the same room, on the other side of town, and even across the globe.  With the option of either private or open matchmaking, where there\xe2\x80\x99s a Wi-Fi connection, there\xe2\x80\x99s a friend to go Zombie-hunting with.*<br/><br/>- This is the Zombie experience from Call of Duty: World at War.  All 4 Zombie maps have been fully realized on the iPhone\xe2\x84\xa2 in a silky smooth 3D environment, along with the return of your favorite guns and killer power ups. <br/><br/>- Three different control schemes are available to suit your style.  Take advantage of the iPhone\xe2\x80\x99s unique tilt capabilities or, for Zombie vets, use the virtual analog sticks to fend off the undead.<br/><br/>- Call of Duty: Zombies features a massive list of unique Achievements.<br/>- Leaderboard support awards the best of the best, accessed directly through your iPhone\xe2\x84\xa2 or iPod\xc2\xae Touch.  Become the top zombie slayer and prove your standings to the world!<br/><br/>So snap to attention, pick up Call of Duty: Zombies, and start fending off the zombie horde!<br/><br/>*Wi-Fi support only at this time, play unavailable on cellular networks.<br/><br/>Note: Call of Duty: Zombies is best played on a 2nd generation iPod\xc2\xae Touch or higher with the latest firmware installed.</p>"
p4
sS'appid'
p5
S'338057689'
p6
s.