(dp0
S'title'
p1
VZombie Farm
p2
sS'description'
p3
S'<p>\xe2\x97\x89\xe2\x80\xbf\xe2\x97\x89 Tired of killing zombies? Try farming them!<br/><br/>Play the #1 farm game in the App Store!<br/><br/>\xf0\x9f\x92\x80 FARM - grow and harvest your very own zombies<br/>\xf0\x9f\x92\x80 CHOOSE - from a wide variety of crops and zombies. 100% organic!<br/>\xf0\x9f\x92\x80 INVADE \xe2\x80\x93fight zombie prejudice by unleashing your home grown zombies on the enemy!<br/>\xf0\x9f\x92\x80 CUSTOMIZE \xe2\x80\x93 unleash your inner or outer designer with the large array of decorations to jazz up your farm<br/>\xf0\x9f\x92\x80 PLAY \xe2\x80\x93 play tag with your friends on their farms &amp; check out what your friends are doing with their farms<br/>\xf0\x9f\x92\x80 CREATE \xe2\x80\x93 experiment and mutate different plants and zombies to create a one of a kind zombie team!<br/><br/>JOIN THE COMMUNITY<br/>Find out more at zombiefarmgame.com<br/><br/>GET SUPPORT<br/>Contact us for help at http://theplayforge.zendesk.com<br/><br/>THE PLAYFORGE\xe2\x84\xa2<br/>Makers of ZOMBIE FARM, the #1 zombie game on the App Store<br/>Visit us at theplayforge.com<br/>Twitter twitter.com/theplayforge</p>'
p4
sS'appid'
p5
S'339933022'
p6
s.