(dp0
S'title'
p1
VLivingSocial
p2
sS'description'
p3
S"<p>Want to save 50%-90% at restaurants, spas, gyms, and more? Download our free iPhone / iPad app to access LivingSocial's daily deals. Each day, we'll introduce you to a new, cool thing to do in your city -- and give you a HUGE discount while we're at it. Always traveling? With our app, you'll see every deal we're running in every city. Call us your United States of Savings. <br/><br/>Deals...in your pocket<br/>Why check email? With our free app, deals are pushed to your iPhone every day. Just click to view the deal and buy directly on your phone. It's that easy!<br/><br/>Share the love<br/>When you buy a deal, tell your friends. Email or tweet your deals in one easy click. Why? If three of your friends buy the deal, you'll get yours for free.<br/><br/>On the go<br/>Out and about? Use our deals map to check if you've purchased a deal at a nearby bar or restaurant. Read: Never pay full price for a dinner again.<br/><br/>Save the earth<br/>No more printing. Simply access a deal on your iPhone or iPad and show it to the merchant. No paper; no hassle; no trees being felled in the forest.</p>"
p4
sS'appid'
p5
S'340295413'
p6
s.