(dp0
S'title'
p1
VHaypi kingdom
p2
sS'description'
p3
S'<p>#1 free mmog for iPhone/iTouch/iPad.<br/><br/>LIMITED TIME OFFER: DOWNLOAD NOW AND ALL THE NEWLY REGISTERED PLAYERS CAN GET 30 FREE COINS AND SECRET GIFTS.<br/><br/>"Really good game, very different to all those other mmo on the iPhone, you get to gather up resources, upgrade buildings, build troops and hunt for treasure and battle enemies :) such endless fun!!"<br/><br/>"Awesome game so far, really enjoying it. I love how you can chat with people and join Alliances."<br/><br/>"This is the best MMORPG game ever made for the iPhone. The developers should put a warning as it is totally addictive!"<br/><br/><br/><br/>Haypi Kingdom is a massive multiplayer online iPhone game set in the middle ages. You will be a general managing a kingdom in a strategic game - boosting resource production, adventuring in extensive wild land, reaping legendary treasures, equipping your troops with advanced abilities and battling against other players - with the ultimate goal of becoming the strongest kingdom in the ancient world. General can get higher title and more advanced attributes as he takes part in more and more battles. His attributes will be shared by his troops as well.<br/><br/>You won\'t play alone. In this massive multiplayer online game you will be able to interact with thousands of players from all over the world in a competition for fame, power, wealth and glory. What\'s more, there are plenty of possibilities to interact with others - Not only offense and defense, but also trade agreements, alliance action, mail system, chat system, etc. Haypi Kingdom will be a rewarding pastime on your iPhone.<br/><br/>Enjoy it now!</p>'
p4
sS'appid'
p5
S'341043140'
p6
s.