(dp0
S'title'
p1
VIMDb Movies & TV
p2
sS'description'
p3
S'<p>Find showtimes, watch trailers, browse photos, track your must-see list and rate your favorite movies and TV shows!  <br/><br/>IMDb is the world\xe2\x80\x99s largest collection of movie, TV and celebrity info.  We aim to list every detail about every movie and TV show ever made, including who was in it, who made it, the plot, user ratings, trailers, photos, reviews, quotes, goofs, trivia and much more.<br/><br/>- Works on iPhone, iPod Touch and iPad<br/>- Over 2 million movie and TV titles<br/>- Over 4 million celebrities, actors, actresses, directors and crew members<br/><br/>Look up:<br/>- Movie showtimes at theaters near you<br/>- TV listings for your timezone<br/>- Recaps of TV shows from last night<br/>- Upcoming movies<br/>- Latest entertainment news from hundreds of media outlets<br/>- Latest DVD releases<br/>- Popular movies<br/><br/>Explore Popular Charts:<br/>- Best Picture award winners<br/>- Top-rated movies of all time<br/>- Most popular movies of the day<br/>- Most popular celebrities of the day<br/>- Lowest-rated movies of all time<br/>- Most popular movies by genre<br/>- Most popular TV shows<br/>- US box office results<br/>- Celebrity birthdays<br/><br/>View:<br/>- Movie trailers<br/>- User reviews for movies and TV shows<br/>- Critic reviews for movies and TV shows<br/>- Quotes, trivia and goofs about movies, TV shows and celebrities<br/>- Your browse and search history on IMDb<br/><br/>IMDb Pro:<br/>- Find representation listings for over 80,000 industry names<br/>- Find company and employee contact details for over 30,000 companies</p>'
p4
sS'appid'
p5
S'342792525'
p6
s.