(dp0
S'title'
p1
VMahjong!!
p2
sS'description'
p3
S'<p>Mahjong Solitaire is a matching game for one player. The goal of the game is to remove all tiles out of the board by pairs.<br/><br/>Select tiles with the same picture and they will disapear. Only free tiles that are not covered are allowed to remove.<br/><br/>MahJong features:<br/>- 25 background pictures<br/>- hint, undo and shuffle board options<br/>- shadow option<br/>- clear big tiles<br/>- autosave when exit or take a call<br/>- no interference with music player</p>'
p4
sS'appid'
p5
S'347878114'
p6
s.