(dp0
S'title'
p1
VPlants vs. Zombies
p2
sS'description'
p3
S"<p>Winner of more than 30 Game of the Year awards.* Plants vs. Zombies\xe2\x84\xa2 was spawned from the fertile minds that created Bejeweled\xc2\xae, Peggle\xc2\xae, Zuma\xc2\xae and Bookworm\xc2\xae. <br/><br/>Get ready to soil your plants as a mob of fun-loving zombies is about to invade your home. Use your arsenal of 49 zombie-zapping plants \xe2\x80\x94 peashooters, wall-nuts, cherry bombs and more \xe2\x80\x94 to mulchify 26 types of zombies before they break down your door. <br/><br/>Game Features:<br/><br/>50 FUN-DEAD LEVELS<br/>Conquer all 50 levels of Adventure mode \xe2\x80\x94 through day, night, fog, in a swimming pool, on the rooftop and more! Replay levels in the all-new Quick Play arena.<br/><br/>NOT YOUR GARDEN-VARIETY GHOULS<br/>Battle zombie pole-vaulters, snorkelers, bucketheads and more. Each has its own special skills, so you'll need to think fast and plant faster to combat them all.<br/><br/>SMASHING FUN <br/>Try to survive all 9 unique levels as you battle zombies hiding in vases. It's smashing fun!<br/><br/>SMARTER THAN YOUR AVERAGE ZOMBIE<br/>Be careful how you use your limited supply of greens and seeds. Zombies love brains so much they'll jump, run, dance, swim and even eat plants to get into your house. <br/><br/>FIGHT LONGER, GET STRONGER<br/>Earn 49 powerful perennials and collect coins to buy a pet snail, power-ups and more.<br/><br/>GROW WITH YOUR GAME<br/>Earn 44 awesome achievements and show off your zombie-zapping prowess.<br/><br/>COIN PACKS<br/>Need coins for great new stuff? Buy up to 600,000 coins right from the Main Menu.<br/><br/><br/>MORE COOL FEATURES<br/>- Full Retina display support\xe2\x80\x94zombies have never looked prettier.<br/>- Compatible with iOS 4 multi-tasking.<br/>- Loads of performance enhancements and bug fixes.<br/><br/><br/>*Original Mac/PC downloadable game.<br/><br/>Discover More Plants vs. Zombies Fun:<br/>Follow us on twitter.com/PlantsvsZombies<br/>Find us on www.facebook.com/PlantsversusZombies <br/><br/>More Apps from PopCap:<br/>BEJEWELED\xc2\xae  \xe2\x80\x93 Match sparkling gems in the world\xe2\x80\x99s #1 puzzle game.<br/>PEGGLE\xc2\xae \xe2\x80\x93 Clear the orange pegs in this epic blend of luck and skill.<br/>BOOKWORM\xc2\xae \xe2\x80\x93 Feed your appetite for fun in THE brain-tickling word puzzle game.<br/>CHUZZLE\xc2\xae \xe2\x80\x93 Slide and match cute, cuddly \xe2\x80\x94 and surprisingly explosive \xe2\x80\x94 furballs.<br/>BEJEWELED\xc2\xae BLITZ \xe2\x80\x93 Enjoy one minute of endless gem-matching awesomeness.<br/><br/>POPCAP MAKES LIFE FUN<br/>Follow us on twitter.com/PopCap <br/>Find us on facebook.com/PopCap<br/>Visit us at PopCap.com<br/></p>"
p4
sS'appid'
p5
S'350642635'
p6
s.