(dp0
S'title'
p1
VGroupon
p2
sS'description'
p3
S'<p>Groupon brings you unbeatable deals for 50\xe2\x80\x9390% off the best stuff to do, see, eat, and buy in more than 500 cities and eleven fiefdoms around the world.<br/><br/>Download the Groupon app to get freshly hatched deals delivered to your iPhone each morning, customized to fit your preferences. Whether you are looking to discover a new restaurant, try out a new \xe2\x80\x98do at the salon, or get some adrenaline pumping at the gym, our featured deals offer deep discounts to tickle your fancy.<br/><br/>You\xe2\x80\x99ll also be able to browse tons of on-demand, real-time offers on dining experiences, spa treatments, fitness classes, and other nearby deals\xe2\x80\x94ready for immediate use\xe2\x80\x94with Groupon Now!.<br/><br/>With the Groupon iPhone app, you can:<br/><br/>\xc2\xb7 Buy and redeem Groupon directly from your iPhone.<br/><br/>\xc2\xb7 Track your purchased coupons by location and expiration date.<br/><br/>\xc2\xb7 Save ink and avoid traumatic paper cuts by never printing another voucher or coupon.<br/><br/>Extended Features:<br/><br/>\xc2\xb7 Browse and buy on-demand Groupon Now! deals for restaurants, spas, fitness centers, and activities near you.<br/><br/>\xc2\xb7 Take an exotic vacation or a quick weekend trip with Groupon Getaways.<br/><br/>\xc2\xb7 Use Groupon Goods to discover products made of reliably bonded molecules.<br/><br/>\xc2\xb7 Effect change in your community by supporting Groupon Grassroots campaigns.<br/><br/>\xc2\xb7 Browse fun, seasonally themed collections year-round or find great holiday gifts with Grouponicus deals.<br/><br/>\xc2\xb7 Share Groupon deals with friends, family, and tech-savvy housecats via social media.<br/><br/>Download the Groupon iPhone app today and start exploring the best your favorite neighborhoods have to offer at savings of up to 90% off.<br/><br/>Terms of Use: http://www.groupon.com/terms<br/>Privacy Policy: http://www.groupon.com/privacy</p>'
p4
sS'appid'
p5
S'352683833'
p6
s.