(dp0
S'title'
p1
VHeyTell
p2
sS'description'
p3
S'<p>HeyTell\xc2\xae is a cross-platform voice messenger that allows you to instantly talk with friends and family. No account needed\xe2\x80\x94just start the app, choose a contact, and push the button to start talking!<br/><br/>\xe2\x9c\xb0 Send and receive voice messages with other HeyTell users with the press of a single button<br/><br/>\xe2\x9c\xb0 Voice messages are quicker than SMS\xe2\x80\x94and free!<br/><br/>\xe2\x9c\xb0 Very low data usage, no more than sending an email<br/><br/>\xe2\x9c\xb0 PUSH NOTIFICATIONS alert you whenever a voice message is received and the app is closed<br/> <br/>\xe2\x9c\xb3 TIP: If you did not enable Pushes on initial install, open the Apple Settings app, select Notifications, ensure it\'s set to On, select HeyTell, and ensure that Badges and Alerts are both set to On.<br/><br/>\xe2\x9c\xb0 Works on 3G, 4G, EDGE, 1X or WiFi (i.e., any Internet connection)<br/><br/>\xe2\x9c\xb0 Superior audio quality: At 16 kHz, HeyTell delivers twice the frequency range of a cell phone call<br/><br/>\xe2\x9c\xb0 Favorites: Favorite and export messages you like to email or Facebook!<br/><br/>\xe2\x9c\xb0 Export messages you record to Facebook, Twitter, Email, and more!<br/><br/>\xe2\x9c\xb0 Extras: Use the in-app purchase function to set alert tones, send messages to groups, change your voice, automatically expire and batch-delete messages, and add emojis to your name! <br/><br/>\xe2\x9c\xb0 Quickly friend, unfriend, or block contacts. Adding contacts as friends ensures that you can always quickly find them by tapping the To: field and tapping "Friends."<br/><br/>\xe2\x9c\xb0 Choose from three different privacy levels to control how users can contact you without an invite:<br/><br/>  \xe2\x9c\x93 Low Privacy: Anyone who knows your contact information can connect with you without an invite.<br/><br/>  \xe2\x9c\x93 Medium Privacy: Anyone who knows your contact information and is friends with one of your HeyTell friends can connect with you. Otherwise, they must invite you to connect.<br/><br/>  \xe2\x9c\x93 High Privacy: No one can connect with you until you accept their invitation.<br/><br/>NOTE: Carriers may charge you &amp; your recipient for SMS invites, but email invites &amp; Low privacy direct connections  should be free.<br/><br/>\xe2\x9c\xb0 If you want to, share your location with selected contacts while you talk <br/><br/>\xe2\x9c\xb3 TIP: To send your location information to a contact, you must have the Maps page open (tap the Target button) when you send the HeyTell message. For privacy reasons, HeyTell does not send your location unless you approve and have Maps open.<br/><br/>\xe2\x9c\xb0 Conversations can be saved and replayed offline, or deleted on-demand <br/><br/>\xe2\x9c\xb3 TIP: Swipe left or right on the conversation and click the DELETE button to delete messages.<br/><br/>\xe2\x9c\xb0 All data and audio you transmit to HeyTell and your friends is encrypted in transit<br/><br/>\xe2\x9c\xb0 Earpiece and speakerphone functionality: Press the  SPEAKER button to toggle earpiece vs. speakerphone mode (If you find earpiece sound is too low, enable the speaker)<br/><br/>\xe2\x9c\xb0 Supports iPhone, iPad and iPod Touch devices (2G and 3G iPod Touches require external microphone)<br/><br/>\xe2\x9c\xb0 You do not need to share personal information to connect with HeyTell contacts. See http://heytell.com/privacy and http://heytell.com/faq for more information about connecting without sharing phone numbers or email addresses!<br/><br/>Use HeyTell as a walkie talkie, intercom, or instant voice messaging system to send quick voice messages to friends and family with iPhones or iPods. Use the integrated geolocation feature to find your friends when they\'ve given you bad directions and you\'re just around the corner!<br/><br/><br/>Problems or questions? <br/><br/>\xe2\x9d\x90 Check out our FAQ at http://heytell.com/faq<br/><br/>\xe2\x9d\x90 Email us at support@heytell.com! <br/><br/>\xe2\x9d\x90 Follow us on Twitter @ https://twitter.com/heytell<br/><br/>\xe2\x9d\x90 "Like" us on Facebook at https://facebook.com/heytell!<br/><br/><br/>\xe2\x9c\xb3 TIP: IF YOU GET AN "INBOX FULL" message, there\'s no need to delete the app or messages: This just means that your friend has to listen or reply to the messages you sent before you can continue to send them messages. Once they listen or respond, you can keep on talking!</p>'
p4
sS'appid'
p5
S'352791835'
p6
s.