(dp0
S'title'
p1
VAngry Birds Lite
p2
sS'description'
p3
S'<p>\xe2\x80\x9cLemme tell ya, these ain\xe2\x80\x99t no ordinary finches we\xe2\x80\x99re talkin\xe2\x80\x99 about. These here are the Angry Birds, the ones that\xe2\x80\x99s gonna kick you in the \xe2\x80\x98nads. And they\xe2\x80\x99re the ones on your side. They must be from Galapadapados, or sumptin\xe2\x80\x99.\xe2\x80\x9d \xe2\x80\x93 Col. Angus, Bird Expert.<br/><br/>The survival of the Angry Birds is at stake. Dish out revenge on the green pigs who stole the Birds\xe2\x80\x99 eggs. Use the unique destructive powers of the Angry Birds to lay waste to the pigs\xe2\x80\x99 fortified castles.<br/><br/>Angry Birds Lite features hours of gameplay, challenging physics-based castle demolition, and lots of replay value. Each of the 12 levels requires logic, skill, and brute force to crush the enemy.<br/><br/>Protect wildlife or play Angry Birds!</p>'
p4
sS'appid'
p5
S'354139923'
p6
s.