(dp0
S'title'
p1
VPoker by Zynga
p2
sS'description'
p3
S"<p>Join the #1 Poker game on iPhone, iPad and Facebook! Play Zynga Poker LIVE against more than 6 million daily users! There\xe2\x80\x99s always a table waiting for you in this exciting Texas Hold \xe2\x80\x98em Poker game. Choose from a 5 or 9 person poker table or jump right into a tournament! Easy for beginners to learn and tough for competitive poker players to put down! <br/><br/>GREAT NEW UPDATES!<br/>- Zynga Poker\xe2\x80\x99s new  lobby now with easy access to Fast Play, Sit-N-Go Tournaments, and Hold \xe2\x80\x98em Poker Tables<br/>- Send and receive FREE poker chip gifts, worth up to 1 million poker chips each!<br/>- Check out friends\xe2\x80\x99 Zynga Poker stats with one click on the new Leaderboard<br/> <br/>CONNECT WITH FRIENDS<br/>- Play Zynga Poker LIVE against your friends or over 6 million daily Facebook players <br/>- Compete over 3G Network or WIFI <br/>- Locate your online friends and join them at their poker table with a simple click of a button <br/>- Chat with others at your poker table or celebrate a great hand by buying a round of drinks for everyone <br/>- Choose from 5 or 9 person tables and change tables with ease <br/>- Invite your friends to join you <br/>- FREE POKER CHIPS <br/>- Free 10,000 chips with download <br/>- Receive up to 1 million free chips in Zynga Poker\xe2\x80\x99s Daily Lottery <br/>- Send and receive free chip gifts! <br/><br/>TOURNAMENTS <br/>- Compete in Zynga Poker\xe2\x80\x99s convenient sit-and-go style of tournament play <br/>- 1st place wins 50% of total chip buy-in, 2nd place wins 30%, and 3rd place wins 20% <br/><br/>iOS 5 Support <br/>- Now with multi-tasking <br/>- Redesigned Zynga Poker lobby with retina display!<br/><br/>LANGUAGES<br/>- Full support for French, Spanish, Italian, German, Portuguese, Simplified Chinese, Traditional Chinese, Japanese, Korean, Turkish, Danish, Dutch, Indonesian, Malay, Norwegian, Swedish and Thai.<br/><br/>*************************************<br/>Zynga Poker can be played with or without a Facebook account. Creating a Facebook account is free.  Zynga Poker will not post or access your Facebook feeds. <br/><br/>Play along online at Facebook at: http://www.zyngapoker.com <br/><br/>Zynga Inc. is the world\xe2\x80\x99s largest social game developer with more than 295 million monthly active users playing their games.   Zynga\xe2\x80\x99s games include FarmVille, FrontierVille, Mafia Wars, Zynga Poker, Caf\xc3\xa9 World, Words With Friends and CityVille.  <br/><br/>Please note: If you having problems merging a Zynga account with a new Facebook account, contact Customer Service. http://zynga.custhelp.com/app/ask <br/><br/>Please share feedback and suggestions on our forum: http://forums.zynga.com/showthread.php?t=822176- <br/><br/>Use of this application is governed by the Zynga Terms of Service. Collection and use of personal data are subject to Zynga's Privacy Policy. Both policies are available in the Application License Agreement below as well as at www.zynga.com. Social Networking Service terms may also apply.</p>"
p4
sS'appid'
p5
S'354902315'
p6
s.