(dp0
S'title'
p1
V5-0 Radio Police Scanner Lite (Free)
p2
sS'description'
p3
S'<p>Tap into the largest collection of live police, firefighters, aircraft, railroad, marine, emergency, and ham radios. Be the first to know about important news, events, or any major crime waves happening in your town.<br/><br/>*Note: Our paid app called 5-0 Radio PRO adds 33,000 more feeds - Search for "5-0 Radio Pro" on iTunes to find it.<br/><br/>Message from the Developers<br/>==========================<br/>Thanks for making us in the top 100 most downloaded iPhone app for 2 years straight (2010 and 2011). We now have over 11 million users.<br/><br/>Features<br/>========<br/>- Listen to feeds in the background. You can run other apps while listening to the police. Just email a link to yourself and tap it to listen to it in the background.<br/>- Automatically attempts to reconnect the feed if you lose the connection.<br/>- Listen to feeds on your desktop/laptop computer. Email yourself a link to the feed, and open that link on your browser or with your favorite mp3 player.<br/>- Ability to Add Feeds<br/>- Brand new built-in Web Browser allows you to browse the web while listening to a feed in the background.<br/>- The web browser also automatically detects feeds and integrates it with the radio. Now you can add feeds from the web by simply tapping on the feed\'s link via our browser.<br/>- The web browser blocks most ads.<br/>- Share feeds with your friends by email. They do not need to buy this app to listen with you.<br/>- Top 100 Feeds list<br/>- Aircraft and Train Feeds<br/>For listings, go here: SmartestApple.com/50radio.html#air<br/>- Worldwide coverage. Although, we may not have your country covered, our app is always expanding and looking for new police radios to tap into.<br/>- List scanners by county. Don\'t just list all feeds in a state, get only the ones that are from your city/county.<br/>- Integrated map that finds your location and the location of the feed. Now you can find where the action is happening and follow along.<br/>- Built-in police/EMS/fire/military codes and phonetic alphabet for easy interpretation. Good for any beginners who do not have the proper training and have trouble remembering what the codes mean.<br/>- Save your favorites to the front screen of the app for quick one-tap access.<br/>- This app will dynamically grab a new list of sources so that you will always be the first to get any new police feeds out there.<br/>- See the popularity of each feed. Each feed lists the number of listeners who are following the action along with you.<br/>- Choose new skins or make your own. Skins can be any photo you choose from your photos library.<br/>- New police feeds and others are added on an hourly basis, so keep checking if we added yours recently.<br/><br/>Available Feeds<br/>==============<br/>Go to http://smartestapple.com/feeds<br/><br/>Legality<br/>=======<br/>It is legal in most countries to listen to police feeds. However, it is illegal in some places to use this app to aid in the commission of a crime or to pose as a police officer when you are not. It may also be illegal to use it while driving. Please consult your local laws before using this app outside of your home.<br/><br/>Is it fake?<br/>=========<br/>It\'s very real. Each feed comes from a person in that region with an expensive police scanner and is sharing the signal with you via the internet.<br/><br/>Real-time<br/>========<br/>The delay between the real radio feed and this app is only 1-3 seconds.<br/><br/>Chat with us<br/>===========<br/>Join us @ twitter.com/50radio and facebook.com/smartestapple<br/><br/>Recommendations<br/>============<br/>Check out our website SmartestApple.com for other great free apps from us</p>'
p4
sS'appid'
p5
S'356336433'
p6
s.