(dp0
S'title'
p1
VKik Messenger
p2
sS'description'
p3
S'<p>19 million users love Kik! It\'s the fast, simple, and personal smartphone messenger that connects you to everyone you love to talk to.<br/> <br/>Here\'s why you\'ll love Kik:<br/> <br/>FAST: Kik is hands-down the fastest, most reliable smartphone messenger available. And with sent, delivered, read, and typing notifications, your conversations will come to life. <br/> <br/>SIMPLE: We believe that simplicity is the ultimate in sophistication. We\'ve spent thousands of hours making sure Kik is the easiest, most beautiful way to send messages, pictures, videos, sketches and more.<br/> <br/>PERSONAL: Your Kik username - not your phone number - is your Kik Identity, so you can keep complete control of your privacy. No wonder Kik is the number one way people connect in other social apps like Instagram, SocialCam, and Viddy.<br/> <br/>Here\'s what our users have to say:<br/> <br/>"Amazing app!  And so, so fast."  Katie<br/>"The best way to keep your personal information private."  Phil, instagrammers.com<br/>\xe2\x80\x9cReally easy to use.\xe2\x80\x9d  Amber</p>'
p4
sS'appid'
p5
S'357218860'
p6
s.