(dp0
S'title'
p1
VJustin.tv
p2
sS'description'
p3
S'<p>We built this slick little app to let you watch any of the 2,500 live channels on Justin.tv.  You can browse by category, search for a channel, chat with other viewers, or even broadcast your own stream!  <br/><br/>==== Features ====<br/><br/>- Watch any Justin.tv live stream<br/>- Some streams in full HD quality<br/>- Search for and follow your favorite streams<br/>- See streams on your TV with AirPlay<br/>- Easy sharing on Twitter and Facebook <br/>- 2 way chat with your viewers <br/>- Broadcast live video from your built-in camera<br/><br/>*NOTE* Broadcasting requires iOS 4.0 or higher on iPhone 4  iPod Touch (4G )or iPhone 3GS</p>'
p4
sS'appid'
p5
S'358612216'
p6
s.