(dp0
S'title'
p1
VFlipboard: Your Social News Magazine
p2
sS'description'
p3
S'<p>*** One of Apple\'s "Amazing Apps for iPhone 5." ***<br/><br/>Beautifully designed for iPad and iPhone, Flipboard creates a personalized magazine out of everything being shared with you. Flip through your Facebook newsfeed and Google+ Circles, tweets from your Twitter timeline, photos from Instagram friends, videos from YouTube, and much more. <br/><br/>Fill Flipboard with the things you like to read, from niche blogs to publications like The New York Times and Rolling Stone, and use Instapaper or Readability to save articles to read later. Flipboard creates a single place to enjoy, browse, comment on and share all the news, photos and updates that matter to you. <br/><br/>In addition to Twitter, Facebook and Google+, you can flip through your newsfeeds and timelines from YouTube, Instagram, Google Reader, LinkedIn, SoundCloud, Tumblr, Flickr, 500px, Sina Weibo and Renren on Flipboard. <br/><br/>See why Flipboard has been named Apple\'s iPad App of the Year, one of TIME\'s Top 50 Innovations, the top social app at the 2012 Webby Awards, the Brit Insurance Interactive Design of the Year, and other accolades.</p>'
p4
sS'appid'
p5
S'358801284'
p6
s.