(dp0
S'title'
p1
VTap Zoo Classic
p2
sS'description'
p3
S"<p>Can you grow your island from a one animal zoo to a world-class safari park?  Also explore our exciting sequel, Tap Zoo 2: World Tour!<br/><br/>PLEASE NOTE: this game lets you purchase items within the game for real money. \xc2\xa0Please disable in-app-purchases on your device if you do not want this feature to be accessible.<br/><br/>Create and care for your very own zoo from your iPhone!\xc2\xa0 You're moments away from building and customizing your own zoo by choosing which animals to buy, and which to breed.\xc2\xa0 Have fun nurturing and customizing your very own zoo.<br/><br/>LOADED WITH FEATURES:<br/><br/>- More than 50 new animals to care for!<br/><br/>- Make choices about how to expand your zoo<br/><br/>- Breed animals<br/><br/>- Place sidewalks and rivers to encourage visitors to see all your different animals and attractions<br/><br/>- Unlock new animals and zoo attractions<br/><br/>- Collect money your animals have earned for your zoo<br/><br/>- Build stores, restaurants, and attractions to encourage more people to come visit your zoo.<br/><br/>- Hire rangers to help you care for your animals when you're not there<br/><br/>- Plant trees to make your park more beautiful.<br/><br/>- Visit your friends' Zoos and play together!<br/><br/>- Beautiful retina display support! <br/><br/>- Very fun to play!<br/><br/>- Works on iPod Touch and iPhones 3G, 3GS, and 4.<br/><br/>- Works on iPad 1 and 2.<br/><br/>- Crossbreed animals!<br/><br/><br/>Can you discover all the crazy cross-breeding combinations?<br/><br/>Horse \xc2\xa0 + Eagle = ???<br/>Leopard + Lion \xc2\xa0= ???<br/><br/>Can you discover the Green Dragon or the Stegosaurus? \xc2\xa0Play now to find them!</p>"
p4
sS'appid'
p5
S'360893304'
p6
s.