(dp0
S'title'
p1
VFruit Ninja
p2
sS'description'
p3
S'<p>NOW WITH GAME CENTER MULTIPLAYER! -- OVER TEN MILLION FRUIT NINJA COPIES SOLD! A huge thanks to everyone out there, you have made this great game even greater because of your amazing support! #1 Paid App in Germany, Norway, Czech Republic, Russia, Israel, Taiwan and Macau! #2 Paid App in USA, Canada, Australia, France, New Zealand, Italy, China, UK, Sweden and more! A huge thanks to all our fans for supporting the game, proving that ninjas hate fruit all over the world!<br/><br/>Fruit Ninja is a juicy action game enjoyed by millions of players around the world, with squishy, splatty and satisfying fruit carnage! Become the ultimate bringer of sweet, tasty destruction with every slash.<br/><br/>****<br/><br/>"It\'s simple, fun and best of all challenging." - Touch Arcade Review<br/><br/>"Fruit Ninja is fun, fun, fun. It\xe2\x80\x99s an instant pleasure." IGN review<br/><br/>"The low price makes the game more than worth it." - TUAW Review<br/><br/>"Fruit Ninja is the sort of game that has come to typify the rising dominance of quick, simple and most of all additively fun gameplay." - AppSpy Review<br/><br/>"You\'ll know it\'s fun, and you\'ll know you want to keep playing." - Slide to Play Review<br/><br/>"Fruit Ninja epitomizes all things a great iPhone game needs." - Resumeplay Review<br/><br/>"The game oozes style and polish." - AppAdvice Review<br/><br/>"My God this game is great. Best iPhone game in a while." - User review.<br/><br/>"Just spent 15 minutes on the crapper in my office complex playing this little gem of a game. Productivity -1" - Touch Arcade comment<br/><br/>****<br/><br/>Swipe your finger across the screen to deliciously slash and splatter fruit like a true ninja warrior. Be careful of bombs \xe2\x80\x93 they are explosive to touch and will put a swift end to your juicy adventure!<br/><br/>Fruit Ninja features Classic, Zen and the amazing new Arcade mode, along with online multiplayer for Game Center-enabled devices! It also has awesome global leaderboards and achievements to unlock!<br/><br/>Your success will also please the wise ninja Sensei, who will accompany your journey with wise words and fun fruit facts.<br/><br/>Fruit Ninja is the messiest and most satisfying fruit game ever!</p>'
p4
sS'appid'
p5
S'362949845'
p6
s.