(dp0
S'title'
p1
VNetflix
p2
sS'description'
p3
S'<p>Netflix is the world\xe2\x80\x99s leading subscription service for watching  TV episodes and movies on your phone. This Netflix mobile application delivers the best experience anywhere, anytime.<br/> <br/>Get the free app as a part of your Netflix membership and you can instantly watch thousands of TV episodes &amp; movies on your phone.  <br/> <br/>If you are not a Netflix member sign up for Netflix and start enjoying immediately on your phone with our one-month free trial.<br/> <br/>How does Netflix work?<br/>- Netflix membership gives you access to unlimited TV shows and movies for one low monthly price.  <br/>- With the Netflix app you can instantly watch as many TV episodes &amp; movies as you want, as often as you want, anytime you want.<br/>- You can Browse a growing selection of thousands of titles, and new episodes that are added regularly. <br/>- Search for titles and watch immediately on your phone or on an ever expanding list of supported devices.<br/>- Rate your favorite shows and movies and tell us what you like so Netflix can help suggest the best titles for you.<br/>- Start watching on one device, and resume watching on another. Check out netflix.com for all the TVs, game consoles, tablets, phones, Blu-ray players and set top boxes on which you can watch Netflix.<br/><br/>Note: Video out is supported on the iPad, iPhone 4, iPhone 4S, and iPod Touch 4G</p>'
p4
sS'appid'
p5
S'363590051'
p6
s.