(dp0
S'title'
p1
VWords With Friends HD
p2
sS'description'
p3
S'<p>Play the AD-FREE version of Words With Friends HD, the game more of your friends are playing than any other word game! (The HD version is optimized for the iPad\'s big screen.)<br/><br/>Experience for yourself why more than 20 million people are addicted to the word building, triple score seeking, chat bubble sending goodness of Words With Friends.<br/><br/>_________________________________________<br/><br/><br/>PRAISE FOR WORDS<br/><br/>\xe2\x80\xa2 "Delightfully addictive." \xe2\x80\x93 GeekSugar<br/><br/>\xe2\x80\xa2 "Everyone who owns an iPhone or iPod Touch should have this game on their device." \xe2\x80\x93 Touch Arcade<br/><br/>\xe2\x80\xa2 Words With Friends HD named "The Multiplayer Game of the Year." --Macworld\xe2\x80\x99s 2010 App Gems Awards <br/><br/><br/>ADDICTIVE FEATURES<br/><br/>\xe2\x80\xa2 Simple and familiar gameplay you know and love<br/><br/>\xe2\x80\xa2 Turn-based design lets you play up to 20 games simultaneously<br/><br/>\xe2\x80\xa2 Play with your friends or match-make instantly with a random opponent<br/><br/>\xe2\x80\xa2 Connect to Facebook to find even more of your friends to play<br/><br/>\xe2\x80\xa2 Stay in touch with friends and family with in-game chat messaging<br/><br/>\xe2\x80\xa2 Push notifications tell you when it\xe2\x80\x99s your turn<br/><br/>\xe2\x80\xa2 Access your games across your iPhone, iPad and/or iPod touch<br/><br/>_________________________________________<br/><br/><br/>iPhone &amp; iPod touch users, check out the original mobile version of Words With Friends. And if you like Words With Friends, try Hanging With Friends.<br/><br/>Already a fan of the game?<br/>Like us on Facebook: http://www.facebook.com/WordsWithFriends<br/>Follow us on Twitter: http://twitter.com/WordsWFriends<br/><br/><br/>Use of this application requires a Facebook or Games With Friends account and is governed by the Zynga Terms of Service. Collection and use of personal data are subject to Zynga\'s Privacy Policy. Both policies are available in the Application License Agreement below as well as at www.zynga.com. Social Networking Service terms may also apply.</p>'
p4
sS'appid'
p5
S'364140796'
p6
s.