(dp0
S'title'
p1
VAngry Birds HD
p2
sS'description'
p3
S"<p>Use the unique powers of the Angry Birds to destroy the greedy pigs' defenses!\xe2\x80\xa8\xe2\x80\xa8<br/><br/>The survival of the Angry Birds is at stake. Dish out revenge on the greedy pigs who stole their eggs. Use the unique powers of each bird to destroy the pigs\xe2\x80\x99 defenses. Angry Birds features challenging physics-based gameplay and hours of replay value. Each level requires logic, skill and force to solve.\xe2\x80\xa8\xe2\x80\xa8<br/><br/>If you get stuck in the game, you can purchase the Mighty Eagle! Mighty Eagle is a one-time in-app purchase in Angry Birds that gives unlimited use. This phenomenal creature will soar from the skies to wreak havoc and smash the pesky pigs into oblivion. There\xe2\x80\x99s just one catch: you can only use the aid of Mighty Eagle to pass a level once per hour. Mighty Eagle also includes all new gameplay goals and achievements!\xe2\x80\xa8\xe2\x80\xa8<br/><br/>In addition to the Mighty Eagle, Angry Birds now has power-ups! Boost your birds\xe2\x80\x99 abilities and three-star levels to unlock secret content! Angry Birds now has the following amazing power-ups: Sling Scope for laser targeting, King Sling for maximum flinging power, Super Seeds to supersize your birds, and Birdquake to shake pigs\xe2\x80\x99 defenses to the ground!\xe2\x80\xa8\xe2\x80\xa8<br/><br/>#1 IPHONE PAID APP in US, UK, Canada, Italy, Germany, Russia, Sweden, Denmark, Finland, Singapore, Poland, France, Netherlands, Malta, Greece, Austria, Australia, Turkey, UAE, Saudi Arabia, Israel, Belgium, Norway, Hungary, Malaysia, Luxembourg, Portugal, Czech Republic, Spain, Ireland, Romania, New Zealand, Latvia, Lithuania, Estonia, Nicaragua, Kazakhstan, Argentina, Bulgaria, Slovakia, Slovenia, Mauritius, Chile, Hong Kong, Pakistan, Taiwan, Colombia, Indonesia, Thailand, India, Kenya, Macedonia, Croatia, Macau, Paraguay, Peru, Armenia, Philippines, Vietnam, Jordan, Kuwait and Malta. \xe2\x80\xa8\xe2\x80\xa8<br/><br/>#1 IPHONE PAID GAME in more countries than we can count!<br/><br/>Note: if you are having a problem with your device crashing after installing the update, try shutting down and restarting the device. If you are still having problems, contact support@rovio.com.<br/><br/>Terms of Use: http://www.rovio.com/eula\xe2\x80\xa8<br/>Privacy Policy: http://www.rovio.com/privacy\xe2\x80\xa8<br/><br/></p>"
p4
sS'appid'
p5
S'364234221'
p6
s.