(dp0
S'title'
p1
VTap Store by Pocket Gems
p2
sS'description'
p3
S"<p>Welcome to your store! With Tap Store you're just a tap away from owning the most popular store in town.<br/><br/>Design your store, choose what to sell and watch the customers -- and profit -- roll in! </p>"
p4
sS'appid'
p5
S'364838852'
p6
s.