(dp0
S'title'
p1
VLDS Gospel Library
p2
sS'description'
p3
S"<p>Gospel Library is the gospel study app of The Church of Jesus Christ of Latter-day Saints. Download and study the scriptures, general conference talks, manuals and more. Gospel Library allows you to search, bookmark, annotate, link, and highlight text. Annotations can be backed up and synchronized between devices and with those on lds.org. Starting in version 2.4 you can search all your annotations and organize them into documents for talks, lessons or topical study in the all new Study Notebook. Now you can even browse and search all the tags you've been making as you mark your scriptures.</p>"
p4
sS'appid'
p5
S'365223775'
p6
s.