(dp0
S'title'
p1
VFlashlight \u221e
p2
sS'description'
p3
S"<p>The brightest, fastest, and most versatile flashlight in the world, ever! Instantly turn on the camera light, and then leisurely enjoy 30+ light effects. <br/><br/>No.1 Top Free Utilities App of App Store Rewind 2011! <br/><br/>\xe2\x98\x85 Shake your iPhone to get the instant brightest flashlight! It's cool! \xe2\x98\x85 <br/><br/>\xe2\x98\x85 New feature: Add the quick-start access to camera light. Try it Now! \xe2\x98\x85 <br/><br/>******************************************************************** <br/>Brought to you for FREE by iHandySoft, the maker of several top apps: Alarm Clock Pro/Free, iHandy Carpenter, iHandy Level Free, iHandy Tip Calculator and more... iHandy Flashlight is another great app by iHandySoft you should not miss! <br/>******************************************************************** <br/><br/>iHandy Flashlight comes with numerous stunning illumination effects; it is never just the most convenient flashlight: <br/>\xe2\x9c\x93 Glow sticks <br/>\xe2\x9c\x93 SOS signals <br/>\xe2\x9c\x93 Disco light <br/>\xe2\x9c\x93 Neon signs  <br/>\xe2\x9c\x93 Police light <br/>\xe2\x9c\x93 Fire Truck light <br/>\xe2\x9c\x93 Reading light <br/>\xe2\x9c\x93 Night light <br/><br/>Features: <br/>\xe2\x9c\x93 Quickest and brightest flashlight: shake your iPhone/iPod touch to get instant full white screen <br/>\xe2\x9c\x93 Cool lighting effects: Strobe, Trippy, Spiral, Emergency, Motion Control and more... <br/>\xe2\x9c\x93 Multi-color realistic glow sticks <br/>\xe2\x9c\x93 Fully customizable colored lights w/ beautiful color picker <br/>\xe2\x9c\x93 Multi-purpose neon signs: show to your friends and get WOW effects <br/>\xe2\x9c\x93 Adjustable brightness w/ indicator (just slide your finger up and down) <br/>\xe2\x9c\x93 Beautiful and innovative UI design <br/>\xe2\x9c\x93 Easy navigation <br/>\xe2\x9c\x93 More exciting features! Download now and find out! <br/><br/>Enjoy!</p>"
p4
sS'appid'
p5
S'368504562'
p6
s.