(dp0
S'title'
p1
VMega Jump
p2
sS'description'
p3
S'<p>\xe2\x80\x9cMega Jump is a standard-bearer for mobile gaming.\xe2\x80\x9d - Destructoid<br/><br/>\xe2\x98\x85 \xe2\x98\x85 Over 30 Million Players! Join in! \xe2\x98\x85 \xe2\x98\x85  <br/><br/><br/>\xe2\x80\x9cThe best casual endless game in the App Store\xe2\x80\x9d - AppAdvice.com<br/><br/>"Superb" - Slide to Play<br/><br/>"Incredibly addictive" - Gamezebo<br/><br/>\xe2\x80\x9cYou\xe2\x80\x99ll be amazed with how long you\xe2\x80\x99re going to be playing!\xe2\x80\x9d - Appmodo<br/><br/><br/>Get ready to blast off on an epic jumping journey with Mega Jump! <br/><br/>Collect coins, grab crazy powerups, and evade monsters to boost yourself to the edge of the Universe and beyond!<br/><br/>Mega Jump has got what you need:<br/><br/>\xe2\x98\x85 Eye-popping cartoon graphics and beautiful multi-layered backdrops<br/><br/>\xe2\x98\x85 Grab the Fireball and Super Nova Mega Boosts and hang on for a fiery ride!<br/><br/>\xe2\x98\x85 Collect coins and stars for big points and huge combo boosts!<br/><br/>\xe2\x98\x85 Upgradable powerups! Use the coins you collect to unlock items that make your player bigger, better and faster!<br/><br/>\xe2\x98\x85 Turn into a Balloon! Strap on some Jump Boots! Become a Coin Magnet! Hover with the Action Umbrella or zap enemies with the Power Shield!<br/><br/>\xe2\x98\x85 Two magical worlds to explore!<br/><br/>\xe2\x98\x85 Multiple stages - try to reach the edge of space and beyond!  <br/><br/>\xe2\x98\x85 Watch out for killer items and monsters that\'ll stop you dead in your tracks!<br/><br/>\xe2\x98\x85 TV-out support!<br/><br/>\xe2\x98\x85 Unlock all kinds of awesome new characters to play with!<br/><br/>\xe2\x98\x85 Hilarious sound effects and a bumping sound track!<br/><br/>\xe2\x98\x85 Regular updates with new features and upgrades!<br/><br/>\xe2\x98\x85 Dozens of unlockable achievements for maximum gamerscore!<br/><br/>\xe2\x98\x85 Online worldwide leaderboards with Openfeint and Game Center!<br/><br/>\xe2\x98\x85 Compete with your friends on Facebook and Twitter!<br/><br/>What are you waiting for? Grab Mega Jump and start jumping! <br/><br/>Honors:<br/>Mega Jump has over 24 million players and counting, and reached the #1 App spot in 28 countries! Thanks to all the Mega Jumpers out there!<br/><br/>Join us on the Mega Jump Facebook page:<br/>http://www.facebook.com/MegaJump<br/><br/>Follow us on Twitter:<br/>http://twitter.com/getsetgames<br/><br/>Please note: Apple is not a sponsor of any promotion.</p>'
p4
sS'appid'
p5
S'370398167'
p6
s.