(dp0
S'title'
p1
VEmoji \u2668\u2605\u2661\u266b
p2
sS'description'
p3
S"<p>This Emoji fully FREE !<br/><br/>~~~~~~~~~~~~~~~~~~~~<br/>It's \xee\x81\x8a let's go \xee\x90\xad<br/>My \xee\x80\x9d got delayed again \xee\x90\x96<br/>Man, the \xee\x90\xb3 ride scared the \xee\x81\x9a out of me!<br/>Want to meet for \xee\x8c\x8c after work?<br/>\xee\x80\xa2 Can u \xee\x90\x9d \xee\x90\xae \xee\x90\xa8 for \xee\x80\x98 practice?<br/>I \xee\x85\x85 my \xee\x80\x8a today<br/>Taking my \xee\x94\x9f for \xee\x84\xbe shopping \xee\x84\xbc<br/>~~~~~~~~~~~~~~~~~~~~<br/><br/>Do you want to have the special ability to \xee\x85\x82express\xee\x8c\xb6<br/>Do you want to highlight your own \xee\x81\x81individuality\xee\x8c\xb6<br/>Do you want to fully express your joy \xee\x90\x95, your anger \xee\x90\x96,and your sense of humor \xee\x90\x82 \xee\x8c\xb6<br/>Do you want to fully release the potential of \xee\x80\x8a iphone\xee\x8c\xb6<br/><br/>This is the Emoji !!! <br/>It makes your iphone have emoji keyboard, so that you can enter up to more than 460 kinds of expression or icon symbols. <br/>You can enter the emoticons in all places where you can enter text.<br/><br/>Emoji, what a unique place?<br/>Start Emoji, just one step, will successfully install emoji keyboard. <br/>It is very simple, without further action. <br/>Even better, it also provides additional image text tutorial to help you learn how to use the keyboard with the three minutes.<br/>All the iphone should have this function. <br/>Our software helps you to open this very cool feature.<br/>Every media offers their praises as far as possible. <br/>They all comment on it as one of necessary functions for iphone.<br/>It will be your best favorable software you ever have.</p>"
p4
sS'appid'
p5
S'371405542'
p6
s.