(dp0
S'title'
p1
VMeetMe - Meet New People
p2
sS'description'
p3
S'<p>MEET SOMEONE NEW RIGHT NOW!<br/>MeetMe is the BEST place for meeting new people near you, FREE!<br/>Whether you are at the bar or the beach, on the subway or at home, MeetMe shows who\xe2\x80\x99s near you and ready to chat!<br/><br/>More than 40 MILLION PEOPLE are on MeetMe making friends, chatting, and hanging out.<br/><br/>Download the #1 service for meeting new people and meet someone new right now!<br/><br/>MeetMe is for all ages, all nationalities, all backgrounds -- EVERYONE!<br/><br/>Use the MeetMe iPhone app to:<br/>- Meet great people near you in MeetMe Live Feed<br/>- See who\'s near you and start chatting fast in Locals<br/>- Ask and answer anything in Ask Me<br/>- Send messages and accept friend requests from people who want to meet you<br/><br/>--------<br/>MeetMe Stories<br/><br/>"[It\'s] probably one of the greatest sites... greater variety of people... everyone is at one place at one time... meeting new people." - Stevie S.<br/><br/>"I log on here, and these people you don\'t even know, they care more about me than my real friends do, these people are so nice." - Michelle M.<br/><br/>"I\'ve met so many people from the world that I wouldn\'t normally meet." Jazzeh N.<br/><br/>*** #1 Social Network for Meeting New People in the US ***<br/><br/>*** As featured on ABC-News, CNN, CosmoGirl, and BusinessWeek *** !</p>'
p4
sS'appid'
p5
S'372648912'
p6
s.