(dp0
S'title'
p1
VFragger
p2
sS'description'
p3
S'<p>Download the #FreeAppADay Store App and wish for more top rated apps like Fragger to be featured on FAAD! <br/><br/>THE #1 iPHONE PAID APP IN MANY COUNTRIES!<br/> <br/>OVER 100 MILLION GAME PLAYS AT MINICLIP.COM.  THE SMASH HIT GAME NOW ON iPHONE!<br/><br/><br/>The world of Fragger is at risk, and he needs your help to explode all enemies! Unleash your shooting abilities to kill all the enemies and unlock 3 different perks! \xc2\xa0<br/><br/>Featuring 340 challenging levels, and 11 different worlds, Fragger guarantees you many long hours of exploding fun!<br/><br/>Once you become and grenade launcher expert, compare your score online with the millions of Miniclip users that play Fragger. <br/><br/>OTHER KEY FEATURES:<br/>\xe2\x98\x85 Amazing new graphics<br/>\xe2\x98\x85 Game Center Leader Boards and Achievements<br/>\xe2\x98\x85 Game music, which automatically switches itself off at start when playing other music on your iPod/iPhone<br/>\xe2\x98\x85 Local+Global high-scores lists<br/>\xe2\x98\x85 Interactive tutorial to learn how to play<br/><br/>***************************************<br/>WHAT REVIEW SITES SAY ABOUT FRAGGER!<br/><br/>"Fragger is a seriously fun little game that strips out all the clutter to make way for delightful gameplay and, of course, lovely destruction." - SlideToPlay<br/><br/>"Fragger is a nice little game with good graphics, controls and audio... It\'s satisfying to play, trickier in places than you expect, and well worth the 59p/99c price" - Bronze Award, Pocket Gamer<br/><br/>"The controls are easy to use and the gameplay is unique and fun. \xc2\xa0You will get addicted to all that this little app has to offer." - appsnews.org<br/><br/>***************************************<br/><br/>Try also the free web version of Fragger on our website:<br/>http://www.miniclip.com/games/fragger/<br/><br/><br/>***************************************<br/>A game by conceptualized by Harold Brenes and developed by Miniclip<br/><br/>------------------------------------</p>'
p4
sS'appid'
p5
S'373046496'
p6
s.