(dp0
S'title'
p1
V9 Innings: Pro Baseball 2011
p2
sS'description'
p3
S'<p>REAL MLB players and teams in 9 Innings: Pro Baseball 2011!<br/><br/>\xe2\x98\x85 This game supports English, \xe6\x97\xa5\xe6\x9c\xac\xe8\xaa\x9e and \xed\x95\x9c\xea\xb5\xad\xec\x96\xb4<br/>______________________________\xc2\xa0<br/><br/>NOTICE<br/><br/>\xe2\x98\x85 Major updates of rosters are finally out!<br/>December 1, 2011 MLBPA\'s most recent roster applied. Reconstructed all data: 30 teams, player stats, positions, rotations, etc.<br/><br/>Supported by the MLBPA, this AWESOME full-featured baseball sim is exactly what all of you baseball fans have been looking for!<br/><br/>______________________________ <br/><br/>FEATURES<br/><br/>- Play with all 30 Major League teams and 800+ actual Major Leaguers with the new MLB seasons schedule.<br/>- Deal with thousands of Major League cards and manage your own team for the championships.<br/>- Compete in 3 different modes: Season, Exhibition, and Homerun Derby<br/><br/>New roster details include:<br/>- 34 batters and 15 pitchers replaced with new players due to retirements and injuries. <br/>- Transfers of 32 batters applied. <br/>- Change of assignment of 44 batters. (more accurate and recent data) <br/>- Change of assignment of 13 pitchers. (more accurate and recent data) <br/>- Rotation of all teams and players\' batting orders reconstructed <br/>- Starting pitchers, relays, and final rotations reconstructed of all teams and players <br/>- Balancing adjustments to apply real-life batters and pitchers gameplay <br/>______________________________\xc2\xa0<br/><br/>CRITICS\' QUOTES\xc2\xa0<br/><br/>Overall, 9 Innings: Pro Baseball 2011\xe2\x84\xa2 is a great, simple baseball game that is only hindered by my previous addiction to Homerun Battle 3D. - 148apps.com<br/><br/>"With entertaining gameplay, a multi-season franchise mode, an excellent homerun derby mode, and endless possibilities for card collection and customization, 9 Innings: Pro Baseball 2011\xe2\x84\xa2 is the strongest entry in the baseball game genre to date, and is recommended for both baseball fans and regular gamers alike." - TouchArade<br/><br/>"9 Innings: Pro Baseball\xe2\x84\xa2 is not only the most entertaining baseball game that I\xe2\x80\x99ve tried for the iPhone, it\xe2\x80\x99s one of the best games period." - iPhone Game of the Day<br/><br/>"Players looking for a fully-featured baseball simulation will find that 9 Innings is a welcome addition to the iPhone lineup." -Finger Gaming<br/><br/>"There are those who need to have all the MLB bells and whistles, some who want more of an arcade feel, others who need depth, and a select few who love unlocking content. 9 Innings gives all of these..." - The Appera<br/><br/>\xe2\x94\x80\xe2\x94\x80\xe2\x94\x80\xe2\x94\x80\xe2\x94\x80\xe2\x94\x80\xe2\x94\x80\xe2\x94\x80\xe2\x94\x80<br/>COM2US GAMES <br/>\xe2\x94\x80\xe2\x94\x80\xe2\x94\x80\xe2\x94\x80\xe2\x94\x80\xe2\x94\x80\xe2\x94\x80\xe2\x94\x80\xe2\x94\x80<br/>- Tiny Farm\xc2\xae<br/>- Derby Days<br/>- 9 Innings: 2013 Pro Baseball<br/>- Homerun Battle 2<br/>- Swing Shot<br/>- IMO: The World of Magic<br/>- Magic Tree by Com2uS<br/>- Super Action Hero<br/>- Slice it!<br/>- Tower Defense\xc2\xae<br/>- Inotia 4<br/><br/>\xe2\x94\x80\xe2\x94\x80\xe2\x94\x80\xe2\x94\x80\xe2\x94\x80\xe2\x94\x80\xe2\x94\x80\xe2\x94\x80\xe2\x94\x80<br/>ABOUT COM2US<br/>\xe2\x94\x80\xe2\x94\x80\xe2\x94\x80\xe2\x94\x80\xe2\x94\x80\xe2\x94\x80\xe2\x94\x80\xe2\x94\x80\xe2\x94\x80<br/>Follow us!<br/>twitter.com/Com2uS<br/><br/>Join Com2uS\' Fan Page<br/>facebook.com/Com2uS<br/><br/>Tips and Updates<br/>com2us.com</p>'
p4
sS'appid'
p5
S'373290787'
p6
s.