(dp0
S'title'
p1
VCat Physics
p2
sS'description'
p3
S'<p>What are cats up to at dawn, when nobody\'s around?<br/><br/>Sneaking around the back alleys? Probably!<br/>Going through garbage cans? Not likely!<br/>Playing Donut Games? Most certainly!<br/><br/>Join the cats in their favorite midnight ball game: CAT PHYSICS!<br/><br/>The objective is simple -- Pass the ball from one cat to another!<br/><br/>Sounds too simple?<br/>Oh, wait... did we mention flip boards, glass windows, trap doors and other obstacles?<br/><br/>* * * * * * * * * * * * * * * * * * * * * * * *<br/><br/>WHAT REVIEWERS SAY:<br/><br/>- "Highly Recommended" -- TouchArcade<br/>- "App Store Games Of The Week" -- GamePro<br/>- "Staff Pick" -- AppComments<br/>- "Rated 4.5 / 5" -- GamePro<br/><br/>APPLE AWARDS / STAFF PICKS:<br/><br/>- "Five-Minute Fixes" -- iTunes US<br/>- "Hot New Games / Physics Puzzlers" -- AppStore<br/><br/>WHAT FANS SAY:<br/><br/>- "Perfect touch controls, wonderful graphics and addictive gameplay."<br/>- "Another unique, fun game"<br/>- "Totally recommend it"<br/><br/>* * * * * * * * * * * * * * * * * * * * * * * *<br/><br/>TECH FEATURES:<br/><br/>- Retina / HD support<br/>- Game Center support<br/>- Universal App (iPad, iPhone, iPod Touch)<br/><br/>GAME FEATURES:<br/><br/>- 50 clever puzzles to solve (Now updated to 100)<br/>- Cozy midnight backdrops<br/>- Jazzy background tunes<br/>- Different solutions for increased replay value<br/>- Donut Games\' famous 3-star ranking system<br/>- Global High Scores: Submit your scores online<br/>- Achievements<br/>- Donut Games\' Collectors Icon #22<br/>- EXCLUSIVE: Not available on any other platform than iDevices (iPhone, iPad, iPod Touch)<br/>- And much more...<br/><br/>* * * * * * * * * * * * * * * * * * * * * * * *<br/><br/>Enjoy another Donut Games release!</p>'
p4
sS'appid'
p5
S'373342398'
p6
s.