(dp0
S'title'
p1
VPogo Games
p2
sS'description'
p3
S"<p>JOIN THE MILLIONS ALREADY PLAYING POGO GAMES! Enjoy FREE puzzle, word, and card games like Poppit!\xe2\x84\xa2, Word Whomp\xe2\x84\xa2, Turbo21\xe2\x84\xa2, Mahjong Safari, Sweet Tooth 2\xe2\x84\xa2, and Phlinx. Premium Players and Club Pogo Members can also unlock a NEW BONUS game \xe2\x80\x93 World Class Solitaire. <br/><br/>CHALLENGE FACEBOOK FRIENDS &amp; CHECK OUT LEADERBOARDS<br/>Your Pogo Profile is the same on Pogo.com, Facebook, and iPhone/iPod touch. Challenge your Facebook friends to match your personal bests and see how you stack up against them on the leaderboards. <br/><br/>EARN TOKENS, RANKS, AND MORE! <br/>See your token totals grow and Ranks soar as you play. Premium Members can also take on WEEKLY BADGE CHALLENGES and collect them all!<br/><br/>LOOK AT ALL THE POPULAR GAMES YOU GET!<br/>For hours of casual fun on your iPhone or iPod touch, enjoy these 6 great Pogo Games for FREE\xe2\x80\xa6 <br/>\xe2\x80\xa2 POPPIT! \xe2\x80\x93 Pop \xe2\x80\x98til you drop! Release hidden \xe2\x80\x9cprizes\xe2\x80\x9d by popping groups of two or more balloons of the same color. <br/>\xe2\x80\xa2 WORD WHOMP \xe2\x80\x93 Show the gophers who\xe2\x80\x99s the real wordsmith and spell as many words as you can before the clock runs out. <br/>\xe2\x80\xa2 TURBO 21 \xe2\x80\x93 Enjoy this fast-paced, black-jack inspired card game that puts you in the driver's seat. <br/>\xe2\x80\xa2 MAHJONG SAFARI \xe2\x80\x93 Experience this timeless classic with a WILD new spin! <br/>\xe2\x80\xa2 SWEET TOOTH 2 \xe2\x80\x93 Match three or more sweets in a row to score!<br/>\xe2\x80\xa2 PHLINX \xe2\x80\x93 The mystery of the Phlinx is beckoning you. Reveal the darkest secrets of the Pharaoh and the Sphinx as you uncover the captured hieroglyphs in each match 3 puzzle. <br/><br/>Premium Players and Club Pogo Members can also unlock the BONUS game \xe2\x80\x93 World Class Solitaire. You get more than just a soft drink and a bag of nuts with this travel inspired Solitaire. It\xe2\x80\x99s perfect for mobile play! <br/><br/>ARE YOU A CLUB POGO MEMBER?<br/>Your Club Pogo membership gives you 100% Ad-Free gameplay, access to premium games like World Class Solitaire and exclusive Weekly Badge Challenges, just like on Pogo.com and Facebook!<br/><br/>For more information about the targeted ad serving technology in this app and data it collects, see License Agreement.<br/>_______________________________________<br/>** DON'T MISS OUR OTHER EXCITING GAMES! ** SCRABBLE, The Sims\xe2\x84\xa2 3, TETRIS\xc2\xae, MONOPOLY, Madden NFL 11 by EA Sports\xe2\x84\xa2, Liqua Pop, ROCK BAND\xc2\xae Reloaded, Need for Speed\xe2\x84\xa2 Hot Pursuit &amp; Surviving High School FREE</p>"
p4
sS'appid'
p5
S'373416293'
p6
s.