(dp0
S'title'
p1
VTap Resort
p2
sS'description'
p3
S'<p>Create the resort paradise of your dreams in Tap Resort!<br/><br/>Design your very own island resort by adding exciting buildings and decorations! \xc2\xa0Watch as tourists flock to your resort to visit your custom island creation! \xc2\xa0Keep adding buildings and decorations to make them happy. \xc2\xa0The happier they are the more they will spend!<br/><br/>FEATURES:<br/>- Design your very own resort paradise!<br/>- Unlock bigger and better attractions as you level up!<br/>- Upgrade your buildings to make them cooler and to earn more coins!<br/>- Earn coins in real-time, even while away from the game!<br/>- Complete Resort Goals to increase your Resort Class! <br/>- Keep your tourists happy by buying them leis!<br/>- Buy new islands to expand your resort empire!<br/>- New items added EVERY day!<br/><br/>Please note: \xc2\xa0A network connection is required to play.<br/><br/>**************************************************************************<br/>Like Tap Resort on Facebook!<br/>http://www.facebook.com/pages/Tap-Resort/130453463641343<br/><br/>Follow Tap Resort on Twitter!<br/>http://twitter.com/tapresort/<br/><br/>Rate Tap Resort 5 Stars and we\xe2\x80\x99ll love you forever!!!<br/><br/>**************************************************************************<br/><br/>http://tinyco.com/websitetermsofuse.htm<br/>http://tinyco.com/privacypolicy.htm</p>'
p4
sS'appid'
p5
S'373788525'
p6
s.