(dp0
S'title'
p1
VDeer Hunter: African Safari
p2
sS'description'
p3
S'<p>NOW WITH GAME CENTER LEADERBOARDS &amp; RETINA DISPLAY support!!!<br/><br/>The most realistic hunting franchise on the iPhone returns with an all new adventure: Deer Hunter: African Safari! <br/><br/>Travel to South Africa, Cameroon and Tanzania to bag exotic big game such as Zebra, Buffalo, Kudu, Elephants, Lions and more! Experience breathtaking African scenery as you progress from rookie to master hunter, unlocking new hunts and purchasing new gear, weapons and skills. Participate in multi-day hunting excursions or opt for quickplay mode where you can choose from lightning and bonus rounds. <br/><br/>Based on the multi-platform, best-selling hunting game from Atari, Deer Hunter: African Safari is as real as it gets!<br/><br/>RETINA DISPLAY - now hunt with high resolution graphics throughout Africa!<br/><br/>All new GYRO controls for unique shooting experience! Tilt the phone in any direction to accurately control the lateral and vertical movement of the crosshairs and line up your shot!<br/><br/>Hunt in 3 different African countries including South Africa, Cameroon and Tanzania, all expertly rendered to make for the most realistic hunting sim experience available on the iPhone.<br/> <br/>All new exotic big game indigenous to Africa: Zebra, Buffalo, Kudu, Elephants, Lions and more - all with true-to-life sense and behaviors!<br/><br/>Stay alert! Certain dangerous animals like buffalo and lions will charge at you if your first shot isn\'t fatal, leaving you less reaction time to fire a second shot. <br/><br/>New day cycle adds realism to your hunts as daylight changes from dawn to noon to evening<br/><br/>Toggle weapons mid-hunt - you can now choose between 2 different weapons during any given hunt.<br/><br/>Use the dynamic scope to zoom in and fire more precise shots, hitting your target\'s ""kill zone."" <br/><br/>Develop your skills: accuracy, reflexes, endurance, tracking and stealth.<br/><br/>The bigger the game, the better the game - unlock new hunts and purchase new gear, weapons and skills by bagging the biggest animals. <br/><br/>Visit the interactive trophy room and re-live your most skillful kills - view stats such as bullet trajectory, exact position of the animal when killed, and any bonus points earned for kill zone hits, vital hits, specific trophy values and distance. <br/><br/>Share Trophies of your most revered kills with friends.<br/><br/>FOLLOW US at <br/>twitter.com/glumobile facebook.com/glumobile<br/><br/>Deer Hunter: African Safari is free to play, but you can choose to pay real money for some extra items, which will charge your iTunes account. \xc2\xa0You can disable in-app purchasing by adjusting your device settings.</p>'
p4
sS'appid'
p5
S'376237595'
p6
s.