(dp0
S'title'
p1
VDoodle God\u2122
p2
sS'description'
p3
S'<p>Over 55\xe2\x80\x99000\xe2\x80\x99000 players tried to create their own world in the last few months! <br/><br/>\xe2\x98\x85\xe2\x98\x85\xe2\x98\x85\xe2\x98\x85\xe2\x98\x85<br/><br/>APPLE REWIND 2011 AWARD, in Top50 Best-Sellers of 2011!<br/><br/>TUAW: "Giving it huge thumbs up..."<br/><br/>GameZebo: "Wonderfully unique concept. Deeply satisfying."<br/><br/>TouchGen: "I would recommend buying it, definitely worth it."<br/><br/>AppSafari: "Discovering each new element was an utter delight."<br/><br/>148Apps: "It\xe2\x80\x99s addictive. Insanely so. Certainly a lot of fun."<br/><br/>AppSpy: "Be prepared to lose an afternoon, it\'s just that powerful."<br/><br/>Slide2Play: "You\'ll have to use your creativity..ruthlessly addictive."<br/><br/>TheAppera: "I never thought in a million years I would get addicted to."<br/><br/>TouchArcade: "...you realise the true genius behind Doodle God\'s alluring gameplay."<br/><br/>Follow us to get early access to exclusive content, price drops and updates: <br/>LIKE: www.facebook.com/doodlegod <br/>FOLLOW: www.twitter.com/joybitsmobile<br/><br/>\xe2\x98\x85\xe2\x98\x85\xe2\x98\x85\xe2\x98\x85\xe2\x98\x85<br/><br/>What\xe2\x80\x99s inside your iPhone? Circuits, microchips, batteries? No! Your iPhone is full of fire, water, earth and air! What do you do with your iPhone? Make calls, send texts, check emails? Boring! With Doodle God\xe2\x84\xa2 you can create storms, build armies, grow a civilization and\xe2\x80\xa6 drink vodka! <br/><br/>Doodle God\xe2\x84\xa2 puts the power of creation in your hands. Mixing and matching different elements, work your way up, all the way from bacteria and beetles, to clay and ceramics, to tools, weapons and beyond! But beware, creating a whole world is not so easy \xe2\x80\x93 inventing the wheel might just end in a plague of zombies\xe2\x80\xa6 <br/><br/>Don\xe2\x80\x99t worry though; you\xe2\x80\x99re not completely alone on your cosmic journey! Every time you successfully create a new item or procedure, you\xe2\x80\x99ll also be rewarded with the wit and wisdom of some of the greatest philosophers and comedians! Clear, colorful graphics bring the rise and fall of mighty empires to your iPhone screen. Unleash your inner god with Doodle God\xe2\x84\xa2! <br/><br/>\xe2\x9c\x94 Mould the 4 basic elements to your whim! <br/>\xe2\x9c\x94 Create 300+ advanced items and concepts! <br/>\xe2\x9c\x94 Intuitive one-click gameplay encourages thoughtful, creative play! <br/>\xe2\x9c\x94 Hundreds of interesting, funny and thought-provoking quotes and sayings! <br/>\xe2\x9c\x94 Mini-Games section for arcade fans! <br/>\xe2\x9c\x94 Extra content for Fan Club members! <br/><br/>KEEP THE UPDATES COMING - Don\'t forget to rate by 5-star ratings and reviews!<br/><br/>More exciting games: <br/><br/>Doodle Devil\xe2\x84\xa2 Ep1 <br/>Doodle Devil\xe2\x84\xa2 F2P<br/>Doodle Devil\xe2\x84\xa2 for MAC<br/>Doodle Farm\xe2\x84\xa2</p>'
p4
sS'appid'
p5
S'376374689'
p6
s.