(dp0
S'title'
p1
VTalking Tom Cat
p2
sS'description'
p3
S'<p>Tom is your pet cat, that responds to your touch and repeats everything you say with a funny voice.<br/><br/>You can pet him, poke him or grab his tail.<br/><br/>Record your own videos of Tom, save them to your library, share them on YouTube &amp; Facebook or send them by email.<br/><br/>\xe2\x98\x85\xe2\x98\x85\xe2\x98\x85 HOW TO PLAY \xe2\x98\x85\xe2\x98\x85\xe2\x98\x85<br/>\xe2\x9c\x94 Talk to Tom and he will repeat everything you say with a funny voice.<br/>\xe2\x9c\x94 Pet him to make him purr.<br/>\xe2\x9c\x94 Poke his head, belly or feet.<br/>\xe2\x9c\x94 Grab his tail.<br/>\xe2\x9c\x94 Pour a glass of milk for him.<br/>\xe2\x9c\x94 Make Tom scratch the screen.<br/>\xe2\x9c\x94 Make Tom play the cymbals, fart, throw a cake at the screen or try to eat Larry.<br/>\xe2\x9c\x94 Record and share videos on YouTube, Facebook or send them by email or MMS.<br/><br/>Enjoy hours of fun and laughter with Tom.</p>'
p4
sS'appid'
p5
S'377194688'
p6
s.