(dp0
S'title'
p1
VBible \u271f\u200b
p2
sS'description'
p3
S'<p>The FREE Bible app with the most translations in the world!  600+ languages including dramatized Audio! And now The JESUS Film Project too!  Over 25,000 Five-Star ratings!  READ the Bible, LISTEN to the Bible, and SEE the Bible as never before with anyone in the world.<br/><br/>\xe2\x98\x85 Video! When available for a chapter, tap the \xe2\x80\x9cJESUS Film\xe2\x80\x9d icon to see God\xe2\x80\x99s Word come to life in 61 video segments from The JESUS Film Project.  Available in many languages with new languages added regularly.<br/>\xe2\x98\x85 No additional Bible downloads required.<br/>\xe2\x98\x85 Localized Bible versions like Arabic (\xd8\xa7\xd9\x84\xd9\x83\xd8\xaa\xd8\xa7\xd8\xa8 \xd8\xa7\xd9\x84\xd9\x85\xd9\x82\xd8\xaf\xd8\xb3.is), Chinese (\xe8\x81\x96\xe7\xb6\x93.is), French, Spanish (Biblia.is), Dutch, Portuguese, Russian and more...<br/>\xe2\x98\x85 Share any Bible verse via Facebook, Twitter, SMS, Email, or Copy in just a tap.<br/>\xe2\x98\x85 Daily Bible programs. Bible in a Year, Proverb a Day, &amp; New Testament in 40 Days make Scripture engagement easy.<br/>\xe2\x98\x85 Bookmark, highlight, &amp; add notes. You\xe2\x80\x99re one tap away from simple, robust personal Bible study tools.<br/>\xe2\x98\x85 Stay in sync. With a free Bible.is Account, sync bookmarks, highlights, &amp; notes between Bible.is Online (www.bible.is) and your iOS devices.<br/><br/>LANGUAGES<br/>Here are a *few* of the Bibles available (full list: www.bible.is/languages)  <br/>Arabic, Ash\xc3\xa1ninka, Bafut, Bulgarian, Cebuano, Chinese Mandarin, Chinese, Cantonese, Croatian, Czech, Danish, Dutch, Ewe, Finnish, French, German,<br/>Guaymi, Haitian, Huasteco Veracruz, Indonesian, Italian, Japanese, Malagasy, Mezquital, Ngiemboon, Portuguese, Romanian, Russian, Somali, Spanish, Swedish, Thai, Ukrainian, Vietnamese, ...many more!<br/><br/>MINISTRY<br/>\xe2\x9c\x9f Bible.is, a ministry of Faith Comes By Hearing (FCBH) a 501c(3) non-profit ministry dedicated to reaching the world\xe2\x80\x99s poor and illiterate with the Word of God in Audio. All US donations are fully tax deductible.<br/><br/>JOIN US<br/>Join our growing international community on www.Facebook.com/Bibleis.<br/>Follow on www.twitter.com/Bibleis.<br/>Share ideas &amp; concerns at http://support.bible.is.</p>'
p4
sS'appid'
p5
S'378075859'
p6
s.