(dp0
S'title'
p1
VNinJump
p2
sS'description'
p3
S'<p>"Yet another brilliant slice of freebie fun" -Pocket Gamer<br/>"You really need to give Ninjump a try" -Touch Arcade<br/>"Check out Ninjump, it\'s extremely fun" -148 Apps<br/>"This is fast becoming one of my favorites" -The App Era<br/><br/>Rise to the top and become a ninja master in NINJUMP, the latest FREE game from Backflip Studios, makers of PAPER TOSS, STRIKE KNIGHT and GRAFFITI BALL!<br/><br/>In this fast paced ninja climbing game, your goal is to rise as high as you can while avoiding killer squirrels, angry birds, enemy ninjas, throwing stars and exploding bombs. With a simple tap you can jump from one wall to the other, knocking obstacles from the air as you do. Take down three enemies of the same kind to trigger mega-jump bonuses. Collect shields to plow through your opponents with. Just watch out for ledges and other ninjas because they will knock you off and send you to your doom!<br/><br/>You will be amazed by the gorgeous graphics, rich gameplay, immersive music and the insanely addictive quality of this game.<br/><br/>Features include:<br/>-Simple single-tap gameplay<br/>-Ninjas<br/>-Killer squirrels<br/>-More ninjas<br/>-Beautiful graphics<br/>-Awesome bonuses<br/>-Original sound and music<br/>-OpenFeint Leaderboards<br/>-Optimized for iPhone 4 retina display<br/>-Challenge a friend via email<br/>-Fast app switching<br/>-Post scores on Facebook or Twitter<br/><br/>At Backflip Studios making fun games is priority one! We have seen over 34,000,000 downloads across our library of games and greatly value your support and feedback.<br/><br/>Try some of our other games, including GRAFFITI BALL, STRIKE KNIGHT, PAPER TOSS: WORLD TOUR, RAGDOLL BLASTER 2, and HARBOR HAVOC 3D FREE.<br/><br/>NinJump on Facebook: http://www.facebook.com/ninjumpgame<br/>Follow us on twitter: @backflipstudios<br/><br/>Thanks for playing!</p>'
p4
sS'appid'
p5
S'379471852'
p6
s.