(dp0
S'title'
p1
VCut the Rope
p2
sS'description'
p3
S"<p>Cut the rope to feed candy to little monster Om Nom\xc2\xae! 250 million downloads around the world of this phenomenal puzzle game. 300 levels and more to come! <br/><br/>Cut the Rope: Spooky Box Level Pack and Superpowers<br/><br/>***The NEW Spooky Box update has arrived to Cut the Rope with 25 exciting new levels! Tap the ghosts to morph them into bubbles or bounce pads to help you get the candy into Om Nom\xe2\x80\x99s mouth!***<br/><br/>***This update also includes NEW superpowers (which players have been enjoying in Cut the Rope: Experiments), available for in-app purchase\xc2\xa0giving players exciting new ways to navigate the toughest levels in Cut the Rope! Users can active Om Nom\xe2\x80\x99s telekinetic superpowers to move the now unbreakable candy around the screen.\xc2\xa0Now with 4 stars instead of 3, fans can collect more stars to unlock more levels, faster!***<br/><br/>A mysterious package has arrived, and the little monster inside has only one request\xe2\x80\xa6 CANDY! Cut the ropes, release candy into Om Nom's mouth, collect shiny gold stars, new hidden clover prizes and unlock new levels.<br/><br/>Join millions of others who have enjoyed the outstanding physics, tricky levels, and colorful visuals of ZeptoLab's critically acclaimed Cut the Rope.<br/><br/>Cut ropes to get candy to Om Nom, or activate new Superpowers to get more stars, prizes and keep Om Nom's sweet tooth satisfied! <br/><br/>Key Features:<br/>\xe2\x80\xa2 \xc2\xa0\xc2\xa0\xc2\xa0\xc2\xa0\xc2\xa0\xc2\xa0300 levels, 12 level boxes<br/>\xe2\x80\xa2 \xc2\xa0\xc2\xa0\xc2\xa0\xc2\xa0\xc2\xa0\xc2\xa0Innovative gameplay mechanics<br/>\xe2\x80\xa2 \xc2\xa0\xc2\xa0\xc2\xa0\xc2\xa0\xc2\xa0\xc2\xa0Realistic physics<br/>\xe2\x80\xa2 \xc2\xa0\xc2\xa0\xc2\xa0\xc2\xa0\xc2\xa0\xc2\xa0Cute character<br/>\xe2\x80\xa2 \xc2\xa0\xc2\xa0\xc2\xa0\xc2\xa0\xc2\xa0\xc2\xa0Outstanding graphics<br/>\xe2\x80\xa2 \xc2\xa0\xc2\xa0\xc2\xa0\xc2\xa0\xc2\xa0\xc2\xa0Constant free updates with new levels</p>"
p4
sS'appid'
p5
S'380293530'
p6
s.