(dp0
S'title'
p1
VFlashlight \u24c4
p2
sS'description'
p3
S"<p>Bright. Fast. Simple. The most elegant and functional flashlight app, ever! And it's the ONLY flashlight app that goes with a compass, giving you the direction in the darkness. Don't miss it!<br/><br/>Features:<br/><br/>\xe2\x80\xa2 Brightest Flashlight instantly ON<br/>\xe2\x80\xa2 Always-On compass<br/>\xe2\x80\xa2 Strobe mode with 10 different frequencies<br/>\xe2\x80\xa2 Built-in SOS signal<br/>\xe2\x80\xa2 Intuitive and elegant UI design<br/><br/>Continued use of the flash may dramatically decrease battery life.</p>"
p4
sS'appid'
p5
S'381471023'
p6
s.