(dp0
S'title'
p1
Vshopkick - Treat yourself while shopping!
p2
sS'description'
p3
S'<p>***** "Top Shopping App" \xe2\x80\x93 ABC, WSJ<br/>Over 3 million shoppers love shopkick. Earn rewards just by *walking* into stores like Target (nationwide!), Macy\xe2\x80\x99s, Best Buy, Old Navy, Crate &amp; Barrel, American Eagle &amp; more. It\'s like magic. Get more for scanning items and purchases.<br/> <br/>Enjoy free gift cards, coffee lattes, music downloads, Facebook credits, restaurant vouchers and movie tickets. You\xe2\x80\x99ll love the cheap finds, coupons, deals and discounts. Treat yourself!</p>'
p4
sS'appid'
p5
S'383298204'
p6
s.