(dp0
S'title'
p1
VStumbleUpon!
p2
sS'description'
p3
S'<p>StumbleUpon | Explore more.<br/>StumbleUpon is the easiest way to discover new and interesting things from all corners of the Web. Stumble whenever or wherever you want.  While waiting for the bus or relaxing at home, Stumble through Interests like Humor, Music and Photography to discover entertaining web pages, photos, videos and more. It\xe2\x80\x99s like taking a road trip through the Web. <br/><br/>Here\xe2\x80\x99s how it works. You tell us what you\xe2\x80\x99re interested in (select from over five hundred Interests) and we\xe2\x80\x99ll show you all kinds of new stuff related to those Interests. Tap the \xe2\x80\x9cStumble\xe2\x80\x9d button or swipe your device\xe2\x80\x99s screen to continue the adventure. Every time you Stumble you\xe2\x80\x99ll see a small preview \xe2\x80\x9cSlide\xe2\x80\x9d of the full Stumble that loads in the background. Swipe through Slides to quickly browse content recommended for you. Thumb up the things you Like and thumb down the things you don\xe2\x80\x99t care for and we\xe2\x80\x99ll get better at recommending stuff that you\xe2\x80\x99ll enjoy.<br/><br/>StumbleUpon love:<br/>\xe2\x80\x9cShows you all the hidden treasures you\xe2\x80\x99re missing out on all over the Web. I love it!\xe2\x80\x9d<br/>\xe2\x80\x9c...an amazingly fun and addicting app.\xe2\x80\x9d<br/>\xe2\x80\x9cBest source of mobile entertainment EVER.\xe2\x80\x9d<br/><br/>Download the free StumbleUpon app to start exploring today.</p>'
p4
sS'appid'
p5
S'386244833'
p6
s.