(dp0
S'title'
p1
VPocket Frogs
p2
sS'description'
p3
S"<p>Discover, collect, trade, and breed over 15,000 unique frogs on your iOS device, anytime, anywhere!<br/>\xe2\x98\x85\xe2\x98\x85\xe2\x98\x85\xe2\x98\x85\xe2\x98\x85<br/><br/>\xe2\x98\x85 Trade frogs and habitat items with friends<br/>\xe2\x98\x85 Breed a diverse and unique collection of frogs<br/>\xe2\x98\x85 Play anytime, online or off<br/>\xe2\x98\x85 Beautiful high resolution Retina graphics<br/>\xe2\x98\x85 Customize and decorate each of your frog habitats<br/>\xe2\x98\x85 Over 60 challenging awards to earn<br/>\xe2\x98\x85 View your friends' habitats and frogs<br/>\xe2\x98\x85 Different in-game items available every day<br/>\xe2\x98\x85 Explore the pond to find rewards and discover rare frogs</p>"
p4
sS'appid'
p5
S'386644958'
p6
s.