(dp0
S'title'
p1
VInfinity Blade
p2
sS'description'
p3
S'<p>**INFINITY BLADE IS NOW ONLY $0.99. FOR A LIMITED TIME!** <br/><br/>The critically acclaimed best seller is celebrating a limited time $0.99 sale. Get it while you can! <br/><br/>Winner of the 2011 Apple Design Award, and more than 20 \xe2\x80\x9cGame of the Year\xe2\x80\x9d &amp; \xe2\x80\x9cTop App\xe2\x80\x9d awards!  Tons of NEW FREE CONTENT available now!  See below for more details.<br/><br/>From Epic Games\xe2\x80\x99 award-winning studio, ChAIR Entertainment, comes Infinity Blade, a new sword fighting action game developed exclusively for iPhone, iPod Touch, and iPad. <br/><br/>Here\xe2\x80\x99s what the press has to say about Infinity Blade: <br/><br/>**JOYSTIQ: 5 out of 5 - "In terms of recreating a console-level experience on the iPhone, you simply will not do better than Infinity Blade" <br/>**GAMEPRO: 5 out of 5 - "The next generation of handheld gaming is here" <br/>**SLIDE TO PLAY: 4 out of 4 - "Any serious iOS gamer should grab this one up" <br/>**ENGADGET: 9 out of 10 - "Utterly delicious to look at" <br/>**IGN: 9 out of 10 - "Infinity Blade is easily one of the most defining iPhone games of 2010" <br/>**TOUCHARCADE: "It doesn\'t get much more \'must have\' than this" <br/>**GIZMODO: "An iOS game like you\'ve never seen before" <br/><br/>The first mobile game powered by Epic\xe2\x80\x99s cutting-edge Unreal Engine 3 technology, Infinity Blade takes handheld gaming to new heights with gorgeous visuals, adrenaline-fueled battles and advanced character progression in a fully 3D castle realm. <br/><br/>Universal App - Play Infinity Blade on iPhone 3GS, iPhone 4, iPhone 4S, iPad, iPad 2, iPod Touch 3 (16 GB and above), or iPod Touch 4 for a single low price. <br/><br/>Optimized for iPhone 4, and iPad 2 \xe2\x80\x93 Includes high-resolution graphics that utilize the enhanced visual capabilities of the iPhone 4 and iPad 2.<br/><br/>INFINITY BLADE <br/><br/>For untold ages, the God King has ruled with an iron fist - his power is incalculable; his followers, legion. Now you must journey to the Dark Citadel to battle his Titans, one by one, until you face the tyrant himself. As it has been for all in your bloodline, this is your birthright - to free your people from an endless legacy of darkness. The immortal can be vanquished - but only if heart, mind, and steel are one. <br/><br/>DYNAMIC SINGLE-PLAYER CAMPAIGN <br/><br/>Spectacular 3D characters and environments powered by the award-winning Unreal Engine 3 bring to life the story of a lone knight\xe2\x80\x99s pursuit to save civilization. <br/><br/>RESPONSIVE AND INTUITIVE TOUCH CONTROLS <br/><br/>Attack, dodge, block, and cast devastating spells - all with the simple swipe of a finger. <br/><br/>SIMPLE NAVIGATION <br/><br/>Easy to use, tap-to-move controls enable players to effortlessly navigate and explore the castle realm while searching for collectable items such as treasure, swords, shields, armor and other magical objects. <br/><br/>DEEP CHARACTER CUSTOMIZATION <br/><br/>Dozens of Swords, Shields, Helmets, Armor, and Magic Rings to acquire and master - leveling up your character and increasing Attack, Health, Shield and Magic skills. <br/><br/>GAME CENTER <br/><br/>Achievements and Leaderboards, challenge your friends to multiplayer matches online via Game Center!</p>'
p4
sS'appid'
p5
S'387428400'
p6
s.