(dp0
S'title'
p1
ViSlash
p2
sS'description'
p3
S'<p>\xe2\x98\x85 NOW WITH MULTIPLAYER \xe2\x98\x85<br/>MORE THAN 15 MILLION PEOPLE ENJOYING iSLASH! THANK YOU EVERYBODY!<br/><br/>iSlash is the best slashing puzzle on the App Store!<br/><br/>\xe2\x98\x85 \xe2\x98\x85 \xe2\x98\x85 \xe2\x98\x85 \xe2\x98\x85<br/><br/>Featured in the New &amp; Noteworthy in Japan<br/><br/>Featured as TUAW\'s Daily App<br/><br/>"Aesthetics and evolving gameplay are the two main reasons iSlash works so well... Worthy of our A- rating and high recommendation."<br/>- iLounge<br/><br/>"iSlash is that rare combination which offers both fun and a great challenge."<br/>- 148apps<br/><br/>"This is a very addictive game, and one you will play again and again."<br/>- Appmodo<br/><br/>"iSlash has got style to go with the gameplay. GREAT"<br/>- Games Uncovered<br/><br/>"iSlash is one of the few iPhone games that I\'ve admired, played compulsively, and recommended to anyone who would listen."<br/>- Peter Liepa (Creator of Boulder Dash)<br/><br/>\xe2\x98\x85 \xe2\x98\x85 \xe2\x98\x85 \xe2\x98\x85 \xe2\x98\x85<br/><br/>iSlash is an addictive slashing puzzle where your finger is your weapon. Swipe to slash your way through 190 amazing levels(more to come for free). Keep an eye on the ninja stars; some are fast, some are ghosts but all are deadly. Destroy most of the play-shape and you\'ll advance to the next one. Open your ninja senses and let the fun begin!<br/><br/>FEATURES<br/>* 190 Levels and more to come for FREE<br/>* Multiplayer<br/>* Game Center &amp; OpenFeint support<br/>* Global Leaderboards<br/>* Achievements<br/>* New stars and Bonuses introduced as you advance<br/>* Original soundtrack<br/>* Frequent updates to keep you slashing<br/><br/>MULTIPLAYER GAMEPLAY<br/>Challenge your friends or anyone in the world to a simultaneous slashing battle! First to reach the red knot wins the game!<br/><br/>* Real-Time Multiplayer<br/>* New Gameplay Experience<br/>* 50 Levels Designed for Multiplayer<br/>* Special Achievements for Multiplayer<br/><br/>For the best multiplayer experience the minimum required version is 1.4.1<br/>Always get the latest update for best slashing fun!<br/><br/>We\'d like to thank everybody who encourages us with their reviews and for making iSlash one of the best slashing puzzle games on iTunes!<br/><br/>Follow us on Twitter:<br/>http://twitter.com/duellogames<br/><br/>Join us on Facebook: <br/>http://www.facebook.com/duellogames<br/><br/>Keep S/la/sh/in/g!</p>'
p4
sS'appid'
p5
S'388130466'
p6
s.