(dp0
S'title'
p1
VToyshop Adventures
p2
sS'description'
p3
S"<p>NOW WITH TOURNAMENT MODE, GAME CENTER LEADERBOARDS, WILD WEST EPISODE, and NEW CHARACTER! <br/><br/>Download for FREE! Some peculiar things are happening down here in the Toyshop\xe2\x80\xa6<br/><br/>Our shopkeeper has lost his marbles (quite literally!) and it's up to you to help him find his special marbles and restore balance to this once peaceful toy store! Guide one of the shopkeeper's favorite toys through a variety of playful, platform puzzles. Collect all of the lost marbles, avoid the electrically-charged Nanobots, and discover secret areas hidden deep within the stacks of toys and games. Use your trusty lasso to grab and move certain objects to help reach your goal. Check in with other toys you meet on your adventures for help and power-ups! Open up the Toyshop today and uncover a miniature world of platform hopping playthings!<br/><br/>FEATURES<br/><br/>\xe2\x80\xa2 Story-filled adventure- play through the imaginative series of platform-based levels set among the shelves of an enchanted toy store<br/><br/>\xe2\x80\xa2 Unlock colorful new characters- find friends along the way to unlock new playable characters that you might just recognize! <br/><br/>\xe2\x80\xa2 Platform gaming with so much more - ride in toy dump-trucks and helicopters, swing from yo-yos, move and tip over certain objects to reveal new ways through the levels<br/><br/>\xe2\x80\xa2 Get even more- additional levels, power-ups and pint-sized characters available NOW!<br/><br/>FOLLOW US at<br/>Twitter @glumobile<br/>facebook.com/ToyshopAdventures</p>"
p4
sS'appid'
p5
S'388469326'
p6
s.