(dp0
S'title'
p1
VInstagram
p2
sS'description'
p3
S"<p>\xe2\x98\x85 \xe2\x98\x85 \xe2\x98\x85 \xe2\x98\x85 \xe2\x98\x85 Instagram<br/><br/>80 million users love Instagram! It's a free, fun, and simple way to make and share gorgeous photos on your iPhone.<br/><br/>Pick from one of several gorgeous filtered effects or tilt-shift blur to breathe a new life into your mobile photos. Transform everyday moments into works of art you'll want to share with friends and family.<br/><br/>Share your photos in a simple photo stream with friends to see - and follow your friends' photos with the click of a single button. Every day you open up Instagram, you'll see new photos from your closest friends, and creative people from around the world.<br/><br/>Features<br/><br/>\xe2\x98\x86 100% free custom designed filters and borders such as XPro-II, Earlybird, Rise, Amaro, Hudson, Lo-fi, Sutro, Toaster, Brannan, Inkwell, Walden, Hefe, Nashville, 1977, and others.<br/>\xe2\x98\x86 Linear and Radial Tilt-Shift blur effects for extra depth of field.<br/>\xe2\x98\x86 Instant sharing to Facebook, Twitter, Flickr, Tumblr, Foursquare, and Posterous<br/>\xe2\x98\x86 Unlimited uploads<br/>\xe2\x98\x86 Interact with friends through giving &amp; receiving likes and comments<br/>\xe2\x98\x86 Full iPhone 4 front &amp; back camera support<br/>\xe2\x98\x86 And much much more...</p>"
p4
sS'appid'
p5
S'389801252'
p6
s.