(dp0
S'title'
p1
VStylish Sprint
p2
sS'description'
p3
S"<p>Stylish Sprint is an action running game where you play as a stickman who travels the world in search of adventure\xe2\x80\xa6and collects any spare coins laying around.<br/>You can run, roll, fly, smash obstacles, and use powerups through 8 unique and varied environments.<br/>Feast your eyes on the characters stylish acrobatics as he flips and spins through each endless stage.<br/>Effortlessly navigate the terrain with simple and intuitive controls.<br/>Getting sick of the main game? Try out one of the included challenge modes with their own unique playing style.<br/>Customize your stickman\xe2\x80\x99s appearance with tons of cool costume items that not only add style to his dash but increase his performance in various ways.<br/>Gain SP (style points), which act as in game currency, by completing quests, getting points during gameplay, or buying SP packs as an in-app purchase. Use SP to buy the various items included in the games shop.<br/><br/>FEATURES:<br/><br/>- Endless replay ability.<br/>- Random level generation.<br/>- No two games will ever be the same!<br/>- Easy controls &amp; Stylish action.<br/>- Amazing graphics &amp; Smooth animations.<br/>- Easy to learn, but hard to put down.<br/>- Easy to enjoy, but hard to master.<br/>- Many different character costumes.<br/>- Many different stages including: Grasslands, Ice, Jungle, Caves, Chinese, Candy Town, Desert, Lava, Moai, Graveyard, and Space (more to come in updates).<br/>- Many different quests to complete for each stage.<br/>- Many different in game items including: Booster, Spring, Parachute, Weight, Wings, Flying Mode, Magnet, Capsule, Stars, Coins, and UpDown.<br/>- Mini games include: Challenge Game Dodge 01, Challenge Game Dodge 02 (more to come in updates).<br/>- Game Center support. (30 different Achievements and a Leaderboard for each mode)<br/>- Facebook support.<br/>- Twitter support.<br/><br/>TIPS:<br/><br/>- Your score multiplier increases when you collect the same color stars consecutively.<br/>- Use your action gauge wisely as you have limited energy to draw from.<br/>- Break obstacles to refill your action gauge.<br/>- Using the action button and flying draw from your action gauge, so make sure your gauge isn\xe2\x80\x99t empty when you try to use them.<br/>- You can choose from four different button layouts from the options menu.<br/>- Completing the tutorial rewards you with some SP.<br/><br/><br/>What the world is saying about Stylish Sprint:<br/><br/>slidetoplay.com says: \xe2\x80\x9cWe really enjoyed Stylish Sprint\xe2\x80\x99s take on this oversaturated genre. Beneath all the glitter and bonus content, this is a solid run \xe2\x80\x99n jump game that will keep you on your toes.\xe2\x80\x9d<br/><br/>ireviewt.com says: \xe2\x80\x9cStylish Sprint is a fashion like experience of a run 'n jump game and highly recommend to all ages. There is nothing against a purchase .\xe2\x80\x9d<br/><br/>toucharchive.com says: \xe2\x80\x9cEasy control with full graphics. Have shop, leaderboards. For first play the tutorial to learn how to play! Perfect game! Really liked!\xe2\x80\x9d<br/><br/>iphones.co.il says: \xe2\x80\x9cWhether you like gum, platformer, or just fans of action, Stylish Sprint is not a game you can switch to the agenda.\xe2\x80\x9d<br/><br/>User Ratings:<br/><br/>5/5 Stars \xe2\x80\x93 \xe2\x80\x9cThis is easily the best run and jump game on the iOS\xe2\x80\x9d<br/><br/>5/5 Stars \xe2\x80\x93 \xe2\x80\x9cThe presentation is awesome. The graphics are great and everything looks good\xe2\x80\xa6\xe2\x80\x9d<br/><br/>Support Information :<br/>-E-mail : playus@naver.com<br/>-Twitter : @playussoft<br/>-Facebook : playus@naver.com</p>"
p4
sS'appid'
p5
S'390141259'
p6
s.