(dp0
S'title'
p1
VRingtone Maker - Make free ringtones from your music!
p2
sS'description'
p3
S"<p>\xe2\x98\x86 Use your iPod songs to create ringtones! <br/>\xe2\x98\x86\xe2\x98\x86\xe2\x98\x86If you're using iOS 5, you can customize Text Tone, Tweet Tone, Alert Tone, Mail Tone, Calendar Tone and Reminders Tone. <br/>\xe2\x98\x86 UNLIMITED NUMBER OF RINGTONES! <br/>\xe2\x98\x86 BEST FREE RINGTONE MAKING APP! <br/><br/>\xe2\x98\x86 KEY FEATURES: <br/>- Easily controls start time of the song. <br/>- Fade in and fade out. <br/>- Fast ringtone saving. <br/>- Record any sound and make it a ringtone! <br/><br/>===== <br/>** Please note this app requires iPhone 3GS or later and iOS 4. <br/>** Please use .m4a or .mp3 audio files. DRM protected .m4p files not supported.</p>"
p4
sS'appid'
p5
S'390929278'
p6
s.