(dp0
S'title'
p1
VCut the Rope Free
p2
sS'description'
p3
S'<p>Cut the rope to feed candy to little monster Om Nom \xc2\xae! 250 million downloads around the world of this phenomenal puzzle game.<br/><br/>A mysterious package has arrived, and the creature inside has only one request\xe2\x80\xa6CANDY! Get a taste of the highly innovative and addictive Cut the Rope. Try  a selection of levels combining outstanding physics, devilishly tricky levels, and bright colorful visuals, Cut the Rope is one of the most original and fun-filled games on the App Store.<br/><br/>\xe2\x80\xa2 I WANT CANDY!<br/>Cut the Rope combines realistic physics with simple, yet accurate and precise touch controls. Think before you slice and be sure to avoid the enemies and obstacles. Every level is different and getting that candy to Om Nom won\xe2\x80\x99t be easy!<br/><br/>\xe2\x80\xa2STAR PLAYER<br/>Use a variety of special tools in your effort to get Om Nom his candy. In this Free version you can try blow candy around in bubbles using special air pumps, use hidden ropes and get a feel for the dangers that lie ahead!<br/><br/>For more information or support, please visit www.chillingo.com</p>'
p4
sS'appid'
p5
S'394613472'
p6
s.