(dp0
S'title'
p1
VDeer Hunter Challenge
p2
sS'description'
p3
S"<p>NOW WITH MORE WEAPONS, NEW CLOTHES AND NEW STORE ITEMS!!<br/><br/>ARE YOU UP TO THE CHALLENGE? <br/><br/>The ultimate DEER HUNTER experience has arrived, and it's ALWAYS open season! <br/><br/>DEER HUNTER CHALLENGE takes the most popular and realistic hunting franchise to extreme wilderness environments in search of the biggest, most prized game around the world. Go from rookie to master sportsman as your experience level increases, and upgrade to greater weapons, equipment and clothing. The more successful hunt trips you take, the more you'll be able to enhance your hunter's skills. Use the GPS map to track and train your sights on black bear, reindeer, cougars, axis deer, moose and more. Animals' behaviors have never been more true-to-life, so exercise extreme caution as these wilderness inhabitants will sometimes charge right at you! Relive your greatest kills in the interactive trophy room- animals' vitals are recorded as well as bullet trajectory and kill locations. Think you've got what it takes to become a master huntsman? The challenge has been issued... become a hunt legend in DEER HUNTER CHALLENGE.<br/><br/>RETINA DISPLAY 3D GRAPHICS<br/>Deer Hunter Challenge now has the highest resolution graphics possible on both the iPhone 4 and iPod Touch 4th Gen, along with HD Graphics on the iPad!<br/><br/>GAME CENTER<br/>Compete against your friends in the global Leaderboards and brag by unlocking all the Achievements!<br/><br/>NEW CAREER MODE<br/>Earn experience points and become a more skillful hunter<br/><br/>PERSONALIZE YOUR HUNTER<br/>Earn coins after successful hunts and get clothing and weapon enhancements<br/><br/>EXTREME HUNTING LOCATIONS<br/>Experience far-flung hunting locations in extreme wilderness environments<br/><br/>REALISTIC GUNS<br/>Choose from a variety of customizable weapons such as the Bolt Rifle, Shotgun, Crossbow and more!<br/><br/>TROPHIES<br/>Earn trophies for bagging the biggest game and relive your proudest moments in the Trophy room<br/><br/>MINI GAMES<br/>Play additional mini-games and bonus rounds<br/><br/>FOLLOW US at<br/>Twitter - @deerhchallenge<br/>facebook.com/deerhunterchallenge<br/><br/>Deer Hunter Challenge is free to play, but you can choose to pay real money for some extra items, which will charge your iTunes account.  You can disable in-app purchasing by adjusting your device settings.</p>"
p4
sS'appid'
p5
S'394873600'
p6
s.