(dp0
S'title'
p1
VRestaurant Story
p2
sS'description'
p3
S"<p>Design your own dream restaurant to show off to your friends. Don't forget to make sure your customers are happy and well-fed by choosing stunning decoration and tasty new dishes! New content will be released EVERY WEEK so the game continually gets even better!<br/><br/>- Design and build a unique restaurant with stunning variety and creativity.<br/>- Customize and choose a top-class menu to suit your tastes.<br/>- Showcase your restaurant and earn extra-special tips from friends.<br/>- Invite your Facebook friends to be your neighbors.<br/>- Exchange secret recipes with your friends.<br/>- FREE updates with new dishes, decorations, themes and more EVERY WEEK!<br/>- It's FREE!<br/><br/>PLEASE NOTE:<br/>- This is an online game only. iPod touch users must be connected to WiFi in order to play!</p>"
p4
sS'appid'
p5
S'394807905'
p6
s.