(dp0
S'title'
p1
VFlashlight \u2600
p2
sS'description'
p3
S"<p>Flashlight \xc2\xa4 instantly turns your iPhone into a REAL brightest flashlight! The ultimate lighting tool that takes full advantage of the iPhone 4/4S LED light. Strobe/Blinking Mode is also supported and it's FREE!<br/><br/>Features:\xe2\x80\xa8<br/>- Brightest Flashlight available - Guaranteed!<br/>- Convenient - Switch On/Off the light just like using a real flashlight<br/>- Strobe/Blinking Mode supported - Blinking frequency adjustable<br/>- Stunning graphics - This is the most beautiful flashlight you can get in hand!\xe2\x80\xa8<br/><br/>Enjoy!<br/><br/><br/>Disclaimer: Continued use of the flash may dramatically decrease the battery life.</p>"
p4
sS'appid'
p5
S'396301854'
p6
s.