(dp0
S'title'
p1
VLil' Pirates
p2
sS'description'
p3
S"<p>PLEASE NOTE: Lil' Pirates is free to play, but charges real money for additional in-app content. You may lock out the ability to purchase in-app content by adjusting your device\xe2\x80\x99s settings.<br/>------------------------<br/><br/>Avast ya scallywags! Drop anchor and prepare to be boarded. There be Lil\xe2\x80\x99 Pirates in these waters!<br/><br/>Amass your perfect crew and craft the finest ship as you set sail for adventure and plunder as the captain of your own pirate vessel. From a modest beginning you\xe2\x80\x99ll transform your ship into an object of fear and envy and amass a fortune fit for a king. <br/>------------------------<br/><br/>Features:<br/><br/>- Customize your ship as you see fit from a ghostly galleon to a pink gilded princes to a multi-mast ship of destruction.<br/>- Assemble a crew with diverse skills and dress and equip them as you please with hundreds of items.<br/>- New ship themes, islands and items.<br/>- New customizable area - the Captain's Cabin!<br/>- Recruit friends to the pirate life through Facebook and Game Center.<br/>- Exchange volleys of cannon fire in ship-to-ship combat.<br/>- Bury treasure on Treasure Island to increase its worth or plunder a friend's buried loot.<br/>- Direct your crew to go on missions and amass more booty.<br/>- 70 levels of high-seas fun<br/>- Universal build - play across iPhone, iPod touch and iPad<br/>- Game Center Achievements<br/>------------------------<br/><br/>ADDITIONAL NOTES:<br/><br/>iOS will keep you logged on for 15 minutes after an initial in-app purchase. Additional purchases won\xe2\x80\x99t require a re-entry of the password during this 15 minute interval. This is a function of the iOS software and not within our control. <br/>------------------------<br/><br/>Check out other awesome games from Capcom including Mega Man\xc2\xae II, Evil\xc2\xae 4 Ghosts\xe2\x84\xa2\xe2\x80\x98N Goblins: Gold Knights, Street Fighter\xc2\xae IV, 1942: First Strike and more!<br/><br/>Follow us on Twitter: www.twitter.com/BeelineGames<br/>Follow us on Facebook: www.facebook.com/BeelineGames<br/>Follow us on Youtube: www.youtube.com/BeelineGames</p>"
p4
sS'appid'
p5
S'397196071'
p6
s.