(dp0
S'title'
p1
VHotel Dash Deluxe
p2
sS'description'
p3
S'<p>\xe2\x98\x85 Check in to Hotel Dash Deluxe for action, mishaps and mayhem! With over 20 million downloads to date, Dash is one of the biggest gaming franchises ever on the iPhone and iPad.<br/>\xe2\x98\x85 Get the tropical Tiki Palace hotel for FREE in this special Deluxe edition of Hotel Dash.<br/><br/>Get ready for hotel hilarity as you renovate and run hotels all over DinerTown! Cater to a variety of quirky guests, including pet lovers, fashionistas and clowns.  Tap and slide to drop off room service, provide extra blankets, and more!  Prompt service will score you extra points, but delay too long and your guests may check out early. Use your hard-earned tips to decorate and restore each hotel back to its original charm. <br/><br/>Make a reservation for fun with Hotel Dash Deluxe!  <br/><br/>Game Features:<br/>* Manage hotel mayhem on your iPhone and iPad<br/>* Play time management with a vertical twist!<br/>* Renovate and run 5 themed hotels, including the FREE Tiki Palace<br/>* Deck out your hotels with more than 60 decor upgrades<br/>* Enjoy hours of fast-paced fun with tons of challenging levels<br/>* Meet lovable customers, including pet lovers, businesswomen and fashionistas<br/><br/>Love the fast-paced fun of Hotel Dash? Try our other addictive games, including Diner Dash, DinerTown Zoo, Cooking Dash, and Wedding Dash. You\xe2\x80\x99re guaranteed to see familiar faces you know and love.<br/><br/>******************* <br/>Want more from PlayFirst? <br/><br/>Facebook: <br/>http://www.facebook.com/playfirstgames <br/><br/>Twitter: @playfirst <br/><br/>Blog: <br/>http://blog.playfirst.com <br/><br/>Website: <br/>www.playfirst.com<br/><br/>*******************</p>'
p4
sS'appid'
p5
S'397836467'
p6
s.