(dp0
S'title'
p1
VAngry Birds Seasons
p2
sS'description'
p3
S'<p>Angry Birds Seasons takes the captivating gameplay of the original to a whole new level! From Halloween to Chinese New Year, the birds are celebrating different festive seasons around the world! With more than 290 levels and regular free updates, these special episodes offer more challenging levels of pig-popping action and golden eggs to discover.<br/><br/>"All the fun of Angry Birds, but more challenging, and with pumpkins and presents." \xe2\x80\x93 Slide to Play<br/><br/>"More of the great Angry Birds gameplay you\xe2\x80\x99ve come to know. Well designed and incredibly challenging levels." -- Gamezebo<br/><br/>"A hauntingly good extension of the original, Angry Birds Halloween delivers more of the same entertaining physics puzzle play." -- Pocket Gamer<br/><br/>"So, if you\xe2\x80\x99re an avid bird-slinger, this purchase just makes too much sense to put off. It\xe2\x80\x99s the best, most season-appropriate way to stay on top of all the action, and the price is oh-so-low." -- App Chronicles<br/><br/>With more than 700 million downloads, Angry Birds is the most popular mobile game of all time. Join the global phenomenon!<br/><br/>Become a fan of Angry Birds on Facebook:<br/>http://facebook.angrybirds.com<br/><br/>Follow us on Twitter:<br/>http://twitter.angrybirds.com<br/><br/>Terms of Use: http://www.rovio.com/eula<br/>Privacy Policy: http://www.rovio.com/privacy</p>'
p4
sS'appid'
p5
S'398157641'
p6
s.