(dp0
S'title'
p1
VText Free  with Textfree: Real Phone Number Included
p2
sS'description'
p3
S'<p>"The fastest, most reliable and easiest to use."<br/>-New York Times<br/><br/>TEXT AND TALK FREE<br/>\xe2\x80\xa2 Earn FREE minutes for calling<br/>\xe2\x80\xa2 Get your own FREE number<br/>\xe2\x80\xa2 No catch, no hidden anything!<br/><br/>WHAT MAKES TEXTFREE SPECIAL?<br/>\xe2\x80\xa2 FREE incoming calls (tell friends your number)<br/>\xe2\x80\xa2 FREE Textfree-to-Textfree calls sound awesome<br/>\xe2\x80\xa2 Facebook Chat right from the app!<br/>\xe2\x80\xa2 Free voicemail, too.<br/>\xe2\x80\xa2 USA\'s #1 calling and texting app<br/><br/>ALSO AVAILABLE FROM PINGER<br/>\xe2\x80\xa2 Download the new Textfree upgrade called Pinger<br/>\xe2\x80\xa2 Even faster, more powerful than Textfree<br/>\xe2\x80\xa2 New features, new name, same price--FREE!<br/><br/>WORK ON IPOD TOUCH?<br/>Oh yeah. Turn your iPod touch into a phone. Calls on WiFi sound better than any mobile.<br/><br/>BECAUSE YOU ASKED<br/>\xe2\x80\xa2 Option to buy Textfree minutes real cheap<br/>\xe2\x80\xa2 Tons of ringtones and text tones<br/>\xe2\x80\xa2 Switch out of Textfree even when on a call<br/>\xe2\x80\xa2 Bluetooth support for iPhone users<br/>\xe2\x80\xa2 Receive texts and calls when not in the app<br/>\xe2\x80\xa2 Group texting: send to multiple friends<br/>\xe2\x80\xa2 Use your own picture as a wallpaper!<br/><br/>REALLY IMPORTANT STUFF<br/>\xe2\x80\xa2 Does NOT support calls to 911<br/>\xe2\x80\xa2 International/Alaska/Hawaii calls coming soon!<br/>\xe2\x80\xa2 Pic msgs work with AT&amp;T, Boost, MetroPCS, Nextel, Sprint, T-mobile, Verizon and Virgin<br/>\xe2\x80\xa2 iPod touch users need WiFi<br/>\xe2\x80\xa2 Earning minutes is for outbound calls only. Inbound, Textfree-to-Textfree are FREE!<br/>\xe2\x80\xa2 Your friends not on Textfree pay regular charges for texts, pics and calls--nothing extra<br/><br/>Text on PC or Mac:<br/>\xe2\x80\xa2 pinger.com/textfree<br/><br/>Connect with us at:<br/>\xe2\x80\xa2 facebook.com/textfree<br/>\xe2\x80\xa2 twitter.com/pinger</p>'
p4
sS'appid'
p5
S'399355755'
p6
s.