(dp0
S'title'
p1
VSmurfs' Village
p2
sS'description'
p3
S"<p>PLEASE NOTE: Smurfs' Village is free to play, but charges real money for additional in-app content. You may lock out the ability to purchase in-app content by adjusting your device\xe2\x80\x99s settings. <br/>------------------------ <br/>What's new in 1.2.7<br/><br/>- Miner Smurf gets a hut! Adds a new Diamond level to the Miner mini game with tons of XP. <br/>- New birds added to the sanctuary including a hummingbird! <br/>- Lots of New Quests <br/>- One new level added. <br/>- New hut customizations for the island and village <br/>- New expansion for the village! <br/>- You can now refill the Smurfberry bush! <br/>- Lots of bugs fixes!<br/>------------------------ <br/><br/>Gargamel found the Smurfs\xe2\x80\x99 village and scattered the Smurfs far and wide.  With Papa Smurf's guidance, it\xe2\x80\x99s up to you to build a new village for the Smurfs to call home.<br/><br/>Based on the original cartoon and comic art, players begin the game with only a single mushroom house and a lone plowed plot of land. From there, things quickly progress, allowing players to build specialized houses, elaborate gardens with colorful crops, bridges to span running rivers, trodden paths, and more. <br/>------------------------ <br/><br/>Features:<br/>- Creativity is your only limit, build a complete Smurfs' village from scratch<br/>- Play with your favorite Smurfs including Papa Smurf, Smurfette, Lazy Smurf, Baby Smurf, Handy Smurf and Jokey Smurf<br/>- Purchase Smurfberries via in-app purchase to speed up the growth of your crops and village!<br/>- Play mini games like Greedy Smurf\xe2\x80\x99s Baking Game, Papa Smurf\xe2\x80\x99s Potion Mixing Game,Painter Smurf\xe2\x80\x99s Painting Game, Lazy Smurf's Fishin' Game and a new free Handy Smurf minigame and unlock additional bonuses<br/>- Connect with friends through Facebook and Game Center and send gifts to your friends' villages<br/>- Play offline... manage your village anytime without having to connect to the internet.  <br/>- Retina display graphics<br/>------------------------ <br/><br/>ADDITIONAL NOTES:<br/><br/>iOS will keep you logged on for 15 minutes after an initial in-app purchase. Additional purchases won\xe2\x80\x99t require a re-entry of the password during this 15 minute interval. This is a function of the iOS software and not within our control.<br/>------------------------ <br/><br/>Follow us on Twitter: www.twitter.com/BeelineGames<br/>Follow us on Facebook: www.facebook.com/BeelineGames<br/>Follow us on Youtube: www.youtube.com/BeelineGames</p>"
p4
sS'appid'
p5
S'399648212'
p6
s.