(dp0
S'title'
p1
VBakery Story
p2
sS'description'
p3
S"<p>Design your own dream bakery to show off to your friends. Don't forget to make sure your customers are happy and well-fed by choosing stunning decoration and tasty new pastries! New content will be released EVERY WEEK so the game continually gets even better!<br/><br/>- Design and build a unique bakery with stunning variety and creativity.<br/>- Customize and choose a top-class menu to suit your tastes.<br/>- Showcase your bakery and earn extra-special tips from friends.<br/>- Invite your Facebook friends to be your neighbors.<br/>- Exchange secret recipes with your friends.<br/>- FREE updates with new pastries, decorations, themes and more EVERY WEEK!<br/>- It's FREE!<br/><br/>PLEASE NOTE:<br/>- This is an online game only. iPod touch users must be connected to WiFi in order to play!</p>"
p4
sS'appid'
p5
S'400506026'
p6
s.