(dp0
S'title'
p1
VAsphalt 6: Adrenaline
p2
sS'description'
p3
S"<p>Feel the thrill of racing like never before in the newest adrenaline-pumping edition of the Asphalt series. <br/><br/>BUILD YOUR DREAM COLLECTION<br/>Discover 42 cars and bikes from Ferrari, Lamborghini, Aston Martin, Ducati and other world-class manufacturers. Collect them in your own 3D garage that you can explore using the gyroscope.<br/><br/>RACE YOUR FRIENDS<br/>You can even take on friends in Online and Local Multiplayer mode for up to 6 racers. Climb the online leaderboard to be the best in the world!<br/><br/>LEAVE THE WORLD IN YOUR DUST<br/>These street races will have you tearing up city streets in L.A., Tokyo, the Bahamas and more. Each location is rendered in beautiful HD graphics that take full advantage of the Retina display.<br/><br/>CHALLENGE THE BEST<br/>Don\xe2\x80\x99t take your eyes off the road for a second, because you\xe2\x80\x99ll be driving against tough opponents in 11 different leagues and 55 events. <br/><br/>TUNED TO PERFECTION<br/>Take advantage of numerous tuning options to help your vehicles reach peak performance on any track. You can even customize your vehicles with decals to give them your own style.<br/><br/><br/>***************************************************************************<br/>Join the Game Hunter Challenge:<br/>Tweet: I found a new @Gameloft Game! Asphalt 6:http://j.mp/eGl69H #GameHunter987 Join the hunt: http://j.mp/aGk2Jx and follow @Gameloft!<br/><br/>What's this? http://j.mp/aGk2Jx<br/>***************************************************************************<br/>Visit us on www.gameloft.com<br/>Follow Gameloft on Twitter to get more info about all our upcoming titles at http://twitter.com/gameloft or like us on Facebook at http://facebook.com/gameloft</p>"
p4
sS'appid'
p5
S'400973408'
p6
s.