(dp0
S'title'
p1
VCleopatra's Pyramid
p2
sS'description'
p3
S"<p>Pharaohs going wild: Cleopatra\xe2\x80\x98s Pyramid has hit the desert!<br/>If you like classic Solitaire and Pyramid card games, you'll love this one!<br/><br/>Cleopatra's Pyramid combines an incredibly captivating gameplay, 212 exciting levels (easily unlockable via In App Purchase or downloading other apps for free), and probably the most beautiful card game artwork you\xe2\x80\x99ve ever seen on the App Store (full Retina display support). This game is highly recommended to all fans of card, board and puzzle games.<br/><br/>MANY HOURS OF SOLITAIRE FUN<br/>Cleopatra's Pyramid is a beautifully illustrated Solitaire card game variation. Your task is to clear as many cards as possible in as few moves as possible. Sounds easy, but can be a real challenge in this long playing game.<br/><br/>212 EXCITING LEVELS<br/>There are 124 stages combining 212 levels in this marvelous game (easily unlockable via In App Purchase or downloading other apps for free). After each completed stage, you'll be awarded a beautiful stone that you can use to create your very own pyramid.<br/><br/>GAME CENTER SUPPORTED LEADERBOARDS &amp; ACHIEVEMENTS<br/>Share your highest scores with everyone, and gain many cool achievements in the Game Center.<br/><br/>GREAT INTERACTIVE MENUS<br/>Have you seen the sun rising and going down in the menus? If you\xe2\x80\x99re facing South when you load the game, then turn around 180 degrees so you\xe2\x80\x99re facing North, the menu will change to night time. That\xe2\x80\x99s worth sharing with your friends, isn\xe2\x80\x99t it? ;-) (Gyroscope support required.)<br/><br/>KEY FEATURES OF CLEOPATRA'S PYRAMID<br/>\xe2\x98\x85 Hours of card game fun with this exciting Solitaire variation<br/>\xe2\x98\x85 212 different levels combined in 124 stages (unlockable via In App Purchase or downloading other apps for free)<br/>\xe2\x98\x85 Beautiful Egyptian artwork with full Retina display support<br/>\xe2\x98\x85 Build your very own pyramids and unlock more than 40 special decoration items<br/>\xe2\x98\x85 Game Center leaderboards<br/>\xe2\x98\x85 Game Center achievements<br/>\xe2\x98\x85 Interactive menus<br/><br/>PLEASE NOTE: When you are buying Scarabs, please note that these are tied to this installation only. Uninstalling the app will cause the loss of the purchased Scarabs. The purchased Scarabs are not refundable, and cannot be transferred to any other devices.<br/><br/>Become a fan of Cleopatra's Pyramid on Facebook: http://www.facebook.com/GameDuell.Mobile.Games</p>"
p4
sS'appid'
p5
S'401141292'
p6
s.