(dp0
S'title'
p1
VTiny Chef\u2122
p2
sS'description'
p3
S'<p>**************************************************<br/>\xc2\xa0THE #1 COOKING GAME IN THE APP STORE!<br/>**************************************************<br/><br/>"I started playing an hour ago and didn\'t stop until I had to cook dinner!"  -Adambob.knepper<br/><br/>"Tiny Chef is a solid choice for fans of the genre" -Gamezebo.com<br/><br/>"Definitely a must have app for everyone!" -Leak95<br/><br/>"Awesome game!!! You should get it!" -Hannah564<br/>**************************************************************<br/><br/>Create the five-star restaurant of your dreams in Tiny Chef! <br/><br/>Design and run your own restaurant in this cute, fun game! Cook food and watch your waiters serve it! Customers bustle around your restaurant, finding their seats, eating their food, and tipping!  Make your restaurant as popular and beautiful as you can.  The better your restaurant is, the more you earn!<br/><br/>FEATURES: <br/>- Design your very own restaurant exactly as you like it! <br/>- Unlock tastier and more complex recipes as you level up! <br/>- Serve new recipes to earn more coins! <br/>- Earn Recipe Stars for cooking the same dish multiple times! <br/>- Visit friends\' restaurants and leave them tips! <br/>- Earn coins in real-time, even while away from the game! <br/>- Collect new recipes daily by learning them from the Academy! <br/>- Cook your dishes instantly when you\'re in a pinch with Chef Bucks! <br/><br/>Please note:  A network connection is required to play. <br/><br/>************************************************************************** <br/>Like Tiny Chef on Facebook!<br/>http://www.facebook.com/pages/Tiny-Chef/172702336089242<br/><br/>Rate Tiny Chef 5 Stars and we\xe2\x80\x99ll love you forever!!! <br/><br/>**************************************************************************<br/><br/>http://tinyco.com/websitetermsofuse.htm<br/>http://tinyco.com/privacypolicy.htm</p>'
p4
sS'appid'
p5
S'402093189'
p6
s.