(dp0
S'title'
p1
VDolphin Play
p2
sS'description'
p3
S'<p>Welcome to Dolphin Play, your fun world under the sea where you can care for and play with dolphins and other creatures.  Dolphin Play showcases the highly intelligent and playful nature of dolphins that you\xe2\x80\x99ll be amazed to encounter.<br/><br/>FEATURES <br/>- Choose from 72 different creatures including 5 dolphin species and 67 fish<br/>- Raise and play with creatures to advance through 44 initial levels<br/>- Buy, sell, feed, and play with all creatures for coins and XP<br/>- Special dolphin training game where you control the dolphin and increase their skills<br/>- Choose from multiple tanks, 73 decorations, 48 plants, and 66 backgrounds to personalize your aquarium experience<br/>- Tools to simplify your management of multiple aquariums including: inventory of waiting events, sell all adult fish, sell tank, and dragging items between tanks<br/><br/>You must have internet access to play.<br/><br/>REVIEWS <br/><br/>"there\xe2\x80\x99s never been a better time to own a virtual aquarium."<br/>Source: 148Apps<br/><br/>"if you are looking for a calming and relaxing game this is brilliant"<br/>Source: The Smartphone App Review</p>'
p4
sS'appid'
p5
S'403039529'
p6
s.