(dp0
S'title'
p1
VWeather+
p2
sS'description'
p3
S'<p>SALE!! $0.99 <br/>It\'s Summer!! Get it now and join millions of others.<br/><br/>The original and most beautiful Weather App for iPhone &amp; iPad - with real Weather Condition Videos. <br/>- New York Times: "The most useful Weather App!" <br/>- Apple: App Store Essentials - Apps Starter Kit <br/>- The Daily: Featured in The Daily App <br/>- TUAW.com: Weather+ for your forecasting pleasure <br/><br/>"You would be well advised to download Weather+. This app puts all your vital weather information on one page, and the background video matches the weather conditions." <br/>(App Smart, NYTimes.com) <br/><br/>FULL SCREEN VIDEO:<br/>Weather+ gives you current weather conditions and a 5-day forecast of all worldwide weather stations. The information is visualized with beautiful full screen video loops for all conditions. This combined with a Flip Clock and a World Clock upgrades your ipad to a weather station like you never imagined.<br/><br/>UNIVERSAL APPLICATION:<br/>Fully functional on all devices (iPad, iPhone, iPod) &gt; No additional costs!<br/><br/>FEATURES:<br/>Weather+ includes a wide range of professional features.<br/><br/>\xe2\x98\x80 Weather and time details for an unlimited number of cities.<br/>\xe2\x98\x80 Full screen video loops of the weather in the selected location.<br/>\xe2\x98\x80 Fully functional on iPad, iPhone and iPod!<br/>\xe2\x98\x80 Standard weather info like condition description and temperature.<br/>\xe2\x98\x80 Wind direction and speed details.<br/>\xe2\x98\x80 Humidity, precipiation, pressure and visibility details.<br/>\xe2\x98\x80 3-hourly weather forecast for a total of 5 days.<br/>\xe2\x98\x80 Swipe the screen from left to right to switch between selected locations.<br/>\xe2\x98\x80 Flip clock with World Clock time of your current location and of the selected location.<br/>\xe2\x98\x80 Switch between Fahrenheit/Miles and Celsius/Kilometers<br/><br/>WIDGET LAYOUT:<br/>You also can change the arrangements of the widgets manually:<br/><br/>\xe2\x98\x80 Show clock, daily &amp; hourly forecast<br/>\xe2\x98\x80 Show clock &amp; daily forecast<br/>\xe2\x98\x80 Show clock only<br/>\xe2\x98\x80 Show one minimal widget at the bottom<br/>\xe2\x98\x80 No widgets, text only<br/><br/>Weather+ is designed to be your daily companion for your basic weather condition needs and will drastically improve your connection to nature and its elements.</p>'
p4
sS'appid'
p5
S'403692190'
p6
s.