(dp0
S'title'
p1
VPath
p2
sS'description'
p3
S"<p>Path is the personal network where you connect with family and close friends. By limiting you to 150 connections, Path is a safe and trusted place to share the moments that matter with the people who matter most. With a focus on beautiful design and responsiveness, Path is 5-star rated and loved by millions of users.<br/><br/>Easily capture and apply lenses to high quality photos and videos, check in to places with friends, share your thoughts, and interact with people you truly care about - all through a fast and seamless interface. One button to share content, one feed to see all your friends' activity.<br/><br/>And for those of you who like to share on public networks like Facebook, Twitter, Tumblr and Foursquare, you can easily check in, upload photos and videos, blog, and tweet directly from Path.<br/><br/>Features:<br/><br/>\xe2\x98\x86 5 emotions to interact with your friends' activity: Smile, Laugh, Gasp, Frown at or Love their moments.<br/>\xe2\x98\x86 Capture and share photos and videos with custom-designed lenses and editing features.<br/>\xe2\x98\x86 Check in to locations with friends.<br/>\xe2\x98\x86 Share the music you're listening to, movies you're watching, and books you're reading.<br/>\xe2\x98\x86 Nudge your friends for photos and check-ins from their city or neighborhood. <br/>\xe2\x98\x86 Tell your friends when you're awake and asleep.<br/>\xe2\x98\x86 'Seen-its' show you who has viewed your moments and who has visited your Path.<br/>\xe2\x98\x86 Share your Nike+ FuelBand activity graphs and Nike+ Running maps.<br/>\xe2\x98\x86 Private by default - no one can see your Path activity unless you accept them as a friend.<br/>\xe2\x98\x86 One tap cross-posting to Facebook, Twitter, Tumblr and Foursquare directly from Path.</p>"
p4
sS'appid'
p5
S'403639508'
p6
s.