(dp0
S'title'
p1
VFruit Ninja Free
p2
sS'description'
p3
S"<p>TRY THE WORLDWIDE SMASH HIT GAME FRUIT NINJA FOR FREE!<br/><br/>Millions of players all around the world are enjoying Fruit Ninja and its constant supply of free updates and new game modes - and now for players who haven't yet had a taste, Fruit Ninja Lite is ready to download at no charge!<br/><br/>The simple yet incredibly satisfying gameplay of Fruit Ninja is ready for action in Fruit Ninja Lite, which features a sample of Classic Mode, the exciting first game that started the phenomenon! Simply swipe the screen to deliciously slash and splatter fruit like a true ninja warrior - but be careful of bombs, which will put a swift end to your juicy adventure!<br/><br/>In Fruit Ninja Lite you can even get a taste of the Dojo, where your success in game can unlock awesome new backgrounds and blades! There are also a small sample of achievements to unlock, with three exclusive to Fruit Ninja Lite! You can also post your results on Twitter and Facebook, showing off your ninja skills to the world!<br/><br/>Fruit Ninja Lite is just a small sample of what the full Fruit Ninja has to offer, and within you can also check out a sneak preview of the three extra game modes - Zen Mode, Game Center Multiplayer and the brand new Arcade Mode! Each mode is unique, exciting and ready to play in the full version of Fruit Ninja, available worldwide for just 99 cents!<br/><br/>Enjoy Fruit Ninja Lite today and experience the quality of the original and the best slicer on iPhone! <br/><br/>Stay juicy!</p>"
p4
sS'appid'
p5
S'403858572'
p6
s.