(dp0
S'title'
p1
VTap Zoo: Arctic
p2
sS'description'
p3
S"<p>Can you build your own wonderland for all of the cute arctic animals?<br/><br/>PLEASE NOTE: This game lets you purchase items within the game for real money. Please disable in-app-purchases on your device if you do not want this feature to be accessible.<br/><br/>Come explore the snow-covered tundra and create your very own Arctic Zoo! You're seconds away from building your own zoo by choosing which animals to buy and breed!  Customize your zoo for the kids who come all the way North to visit your polar paradise! Have fun nurturing and collecting all the different animals! Can you find all of the cross-breeding combinations?<br/><br/>LOTS OF FUN FEATURES:<br/><br/>- Build your town and zoo on a beautiful glacier blanketed with fluffy white snow!<br/><br/>- Visit your friends' zoos<br/><br/>- Tons of new animals<br/><br/>- Collect money your animals have earned for you at the zoo<br/><br/>- Hire helpers to care for the animals<br/><br/>- Decorate your zoo with lots of winter-themed decorations<br/><br/>- Plant trees to make the zoo more beautiful<br/><br/>- Cross-breed and breed your animals<br/><br/>- Place sidewalks to guide your visitors to all the different animals<br/><br/>- Very fun to play!<br/><br/>- Unlock new animals and attractions<br/><br/>- Works on iPhone 3G, 3GS, 4, iPad and iPod Touch</p>"
p4
sS'appid'
p5
S'404100070'
p6
s.