(dp0
S'title'
p1
VAngry Birds Seasons Free
p2
sS'description'
p3
S'<p>Angry Birds Seasons: Easter!<br/><br/>As we all know, every season is an Angry Birds season. After St. Patrick\xe2\x80\x99s, Trick Or Treat and Season\xe2\x80\x99s Greedings, Angry Birds Seasons is back \xe2\x80\x93 and now there are chocolate eggs and bunnies!<br/><br/>Have a few chocolate eggs and bask in the Spring sun!<br/><br/>There are cards you can send too! Rejoice, for Spring is here! <br/><br/>Features in Angry Birds Seasons Free:<br/>- 15 SEASONAL LEVELS<br/>- 5 SEASONAL THEMES<br/>- GAME CENTER SUPPORT<br/><br/>Follow us on Twitter for Angry Birds updates and more information of our upcoming line of toys:<br/>http://twitter.angrybirds.com <br/> <br/>Become a fan of Angry Birds on Facebook:<br/>http://facebook.angrybirds.com<br/><br/>Buy Angry Birds plush toys:<br/>http://shop.angrybirds.com<br/><br/>Terms of Use: http://www.rovio.com/eula<br/>Privacy Policy: http://www.rovio.com/privacy<br/><br/>This free version of Angry Birds contains third party advertisements. Please see our privacy policy for additional information.</p>'
p4
sS'appid'
p5
S'406641429'
p6
s.