(dp0
S'title'
p1
VGasBuddy - Find Cheap Gas Prices
p2
sS'description'
p3
S'<p>Find Cheap Gas Prices<br/>Join the more than 22 million drivers that are saving money every time they fill up by using GasBuddy.<br/> <br/>Share gas prices you see to win free gas and help others save money too!<br/> <br/>FEATURES:<br/>- Find cheapest gas near you<br/>- Find cheapest gas by city/zip/postal code<br/>- Report gas prices to help other people find cheap gas<br/>- Chance of winning $250 gas every week<br/>- Earn points for reporting gas prices<br/>- Earn awards for posting gas prices<br/>- Save money every time you fill up at the cheapest stations<br/> <br/>USER REVIEWS:<br/>- "This app saves me so much it\'s ridiculous."<br/>- "This app is a no brainer! The accuracy is astounding and WILL save you money. Trust me, you want this app!"<br/>- "I love this app! It helped me find a gas station just a mile from my house that I never knew existed. This app is easy to use and saves you money."<br/> <br/>GasBuddy uses gas price information provided by our users to bring drivers together to support the common goal of saving money on gas.<br/> <br/>Gas prices only for USA and Canada<br/> <br/>Apple Inc. is not a sponsor of the prize give-away.</p>'
p4
sS'appid'
p5
S'406719683'
p6
s.