(dp0
S'title'
p1
VAngerOfStick2
p2
sS'description'
p3
S'<p><br/>============UPDATES INFO=============<br/> version 1.0.1 :<br/>-Game Center Support<br/>-RETINA Icon Support<br/><br/>version 1.0.2 :<br/>- Doodle Runner ( Add New Mode )<br/><br/>version 1.0.3 :<br/>- Survival Mode ( Add New Mode )<br/><br/> version 1.0.4 :<br/>- Jump Jump Mode ( Add New Mode )<br/><br/> version 1.0.6 :<br/>-Mulitiplayer Mode: 1 vs 1   ( Add New Mode )<br/><br/>------Main Update Plan------<br/><br/><br/><br/>=====================================<br/><br/>User say :<br/>- " This is a wonderful game! It has a perfect balance of fast action-packed entertainment, and it is completely addicting! I would recommend this game to anyone! "<br/>- " Get this game! It\'s one of the best games I\'ve played for a while! GET THIS GAME! "<br/>- " This game is the beast so addicte to it I can\'t stop playing it. "<br/>- " This is a great game! Really REALLY entertaining when you get into the zone. 5 stars !!!!!!!!!!!!!!!!  "<br/>- " Ohh yeaaaaaaaa oh yeaaaa oh yea! "<br/><br/>Introduction:<br/>- Anger of stick 2nd Story -<br/>Unknown enemies in the city emerge and the hero continues to remove enemies with a variety of weapons, and helicopters and robots that can devastate all enemies at a time.<br/><br/>Special Features:<br/> - Action : You can feel the realistic fighting action with 130 behaviors and Hero air combo action is added that can remove all enemies at one time.<br/>- Weapons: Enemies can be handled lightly by using helicopters and robots in the map, and weapons such as M1911, UZI, Granade Luncher, Spas_12, SG550, Remington_870, Flamethrower, Ray-gun, Mini-gun, Bat, and Sword.<br/>- Map: Cities, deserts and forests are configured in the map and the fighting action inside building is added.<br/><br/>Tips:<br/>- When enemies come on the both sides, all enemies will be fallen down on seizing and throwing enemies back.<br/>- An infinite combo attack is available with Hero air combo.<br/>- Enemies can be handled by well-using robots and helicopters on the streets.<br/>- To avoid the attacks from guns and robots of enemies, button on the key to move to the left is necessary.<br/><br/><br/>Support Information: <br/>For additional support, please contact: <br/>E-mail : pjh097@gmail.com</p>'
p4
sS'appid'
p5
S'408347359'
p6
s.