(dp0
S'title'
p1
VSCRABBLE Free
p2
sS'description'
p3
S"<p>CONNECT AND PLAY WITH FRIENDS! Now it\xe2\x80\x99s easier than ever to find friends playing SCRABBLE. Square off and play up to 50 games at once \xe2\x80\x93 more than any other word game on the App Store! See why SCRABBLE is America\xe2\x80\x99s Favorite Word Game!  <br/><br/>SO MANY WAYS TO PLAY!<br/>\xe2\x80\xa2 Challenge friends via Facebook and more<br/>\xe2\x80\xa2 Play against a random opponent with a single touch <br/>\xe2\x80\xa2 Pass \xe2\x80\x98N Play with up to 4 players<br/>\xe2\x80\xa2 Go head-to-head against a friend on an iPhone or iPad<br/><br/>CHECK OUT THESE OTHER SMART FEATURES<br/>\xe2\x80\xa2 See where your best scores rank on GAME CENTER leaderboards <br/>\xe2\x80\xa2 Become a SCRABBLE master with the exclusive TEACHER FEATURE - see what your best word COULD have been after every turn<br/>\xe2\x80\xa2 View every detail on the board with HD-quality graphics made to maximize the Retina display<br/>\xe2\x80\xa2 Get into a game right from your Facebook mobile app<br/>\xe2\x80\xa2 Talk a good game with enhanced chat and notification features<br/><br/>LOSS FOR WORDS?<br/>Use the in-game word list, built-in official SCRABBLE dictionary, or the exclusive Best Word feature to see your highest scoring choices.<br/><br/>Don\xe2\x80\x99t settle for imitations. Get the official SCRABBLE game \xe2\x80\x93 FOR FREE! <br/><br/>** ALSO CHECK OUT SCRABBLE BLAST \xe2\x80\x93 A FRANTICALLY FUN SCRABBLE EXPERIENCE \xe2\x80\x93 FOR FREE! **<br/>Your favorite word game is now blown out with new dimensions of fast-paced fun and puzzling intensity. It\xe2\x80\x99s casual, but oh-so addictive! And best of all, it\xe2\x80\x99s free!  Look for SCRABBLE Blast on the App Store today! <br/><br/>NOTE ABOUT FACEBOOK PERMISSIONS &amp; PRIVACY: We ONLY use Facebook to help you connect with friends. After you log in to SCRABBLE, Facebook will request permissions about posts and access. Please \xe2\x80\x9callow\xe2\x80\x9d this request. Note that SCRABBLE will NOT access your personal information, and SCRABBLE will prompt you in the game for your specific permission to post challenges, invitations, and Bingo notices to your Wall. You have total control. We ALWAYS respect your privacy!<br/><br/>For more information about the targeted ad serving technology in this app and data it collects, see License Agreement.<br/>_______________________________________<br/>** DON'T MISS OUR OTHER EXCITING GAMES! ** The Sims\xe2\x84\xa2 3, TETRIS\xc2\xae, MONOPOLY, Madden NFL 11 by EA Sports\xe2\x84\xa2, Pogo Games FREE, Liqua Pop, ROCK BAND\xc2\xae Reloaded, Need for Speed\xe2\x84\xa2 Hot Pursuit &amp; Surviving High School FREE<br/><br/>GIFT THIS APP:  Click the \xe2\x80\x9cBuy App\xe2\x80\x9d arrow on the iTunes\xc2\xae App Store<br/><br/>Be the first to know! Get inside EA info on great deals, plus the latest game updates, tips &amp; more\xe2\x80\xa6<br/>VISIT US: ea.com/iphone<br/>FOLLOW US: twitter.com/eamobile<br/>LIKE US: facebook.com/eamobile<br/>WATCH US: youtube.com/eamobilegames<br/></p>"
p4
sS'appid'
p5
S'408492483'
p6
s.