(dp0
S'title'
p1
VInotia 3: Children of Carnia
p2
sS'description'
p3
S'<p>What would it take to change warrior\'s destiny?<br/>The Big Adventure! Inotia3: Children of Carnia!<br/><br/>\xe2\x98\x85\xe2\x98\x85\xe2\x98\x85This game supports English, \xe4\xb8\xad\xe6\x96\x87, fran\xc3\xa7ais and \xed\x95\x9c\xea\xb5\xad\xec\x96\xb4<br/><br/>An inevitable fate has lain before the children of Carnia. The far greatest epic adventure! The Chronicles of Inotia III! The new legend is about to begin in the continent of Inotia.                                                                          <br/><br/>"With the coming of age ritual ahead, Lucio and Ameli from Carnia village happen to be acquiring guntlets, and the adventure stirred up by these guntlets leads to a consequence that is a way beyond their imaginations... Lucio and Ameli realize soon that they have extraordinary destinies lain before them... Warriors\' predestined fates have been lasted for thousands of years already... Will those of who are born to be warriors be happy after all?"<br/><br/>_________________________________________ <br/><br/>NOTICE <br/><br/>2nd Best role playing game from Best App Ever Awards!<br/><br/>_________________________________________ <br/><br/>FEATURES<br/> <br/>1) Organized Party System <br/><br/>A Party Battle System, where you get to combine 6 classes to construct your own party! You can control each character separately and enhance their skills and stats however you like. Through a story mode, you can not only obtain various characters, but also hire mercenaries with items. Personalize each character by equipping a variety of clothing, weapons and defense weapons. <br/><br/>2) Touching Story in an Epic Scale <br/><br/>A way far better and more enormous in scale than its previous sequel, the story line of Inotia III, traveling past and present time back and forth, is solid and constructed in detail that you won\xe2\x80\x99t be able to take your eyes off the game. A whole lot of unique minor casts will make their appearance throughout the story, and the main character\xe2\x80\x99s itinerary is delineated on 130+ maps. 230 of not-to-be-underestimated quests with various themes are enough to testify the Inotia III\xe2\x80\x99s distinctive way of engrossing users. <br/>_________________________________________ <br/><br/>CRITIC\'S QUOTES<br/><br/>\xe2\x94\x80\xe2\x94\x80\xe2\x94\x80\xe2\x94\x80\xe2\x94\x80\xe2\x94\x80\xe2\x94\x80\xe2\x94\x80\xe2\x94\x80<br/>COM2US GAMES <br/>\xe2\x94\x80\xe2\x94\x80\xe2\x94\x80\xe2\x94\x80\xe2\x94\x80\xe2\x94\x80\xe2\x94\x80\xe2\x94\x80\xe2\x94\x80<br/>- Tiny Farm\xc2\xae<br/>- Derby Days<br/>- 9 Innings: 2013 Pro Baseball<br/>- Homerun Battle 2<br/>- Swing Shot<br/>- IMO: The World of Magic<br/>- Magic Tree by Com2uS<br/>- Super Action Hero<br/>- Slice it!<br/>- Tower Defense\xc2\xae<br/>- Inotia 4<br/><br/>\xe2\x94\x80\xe2\x94\x80\xe2\x94\x80\xe2\x94\x80\xe2\x94\x80\xe2\x94\x80\xe2\x94\x80\xe2\x94\x80\xe2\x94\x80<br/>ABOUT COM2US<br/>\xe2\x94\x80\xe2\x94\x80\xe2\x94\x80\xe2\x94\x80\xe2\x94\x80\xe2\x94\x80\xe2\x94\x80\xe2\x94\x80\xe2\x94\x80<br/>Follow us!<br/>twitter.com/Com2uS<br/><br/>Join Com2uS\' Fan Page<br/>facebook.com/Com2uS<br/><br/>Tips and Updates<br/>com2us.com</p>'
p4
sS'appid'
p5
S'408574076'
p6
s.