(dp0
S'title'
p1
VFreeAppADay.com Store: Paid Apps For Free Daily + Game Reviews & Trailers
p2
sS'description'
p3
S"<p>Get the Best Paid Apps for Free Daily! No Gimmicks, No Strings Attached. Paid Apps For Free For You to Keep Forever!<br/><br/>Apps that have previously gone free with FAAD include: Civilization Revolution, Bejeweled from Popcap, I Am T-pain, Zombie Gunship, and popular apps from Disney, Gameloft, and many other top developers!Anything is possible!<br/><br/>How does it work? <br/><br/>The 10 million+ strong community gets paid apps for free daily, which in turn increases the popularity of the apps. Once developers switch their apps back to paid, they generate more sales. Everybody wins!<br/><br/>Join the 10 million+ FAAD community today. Make a wish to help us select top rated apps. From time to time FAAD showcases apps that are already free because they are that good.<br/><br/>The bigger we are, the better the apps we get!<br/><br/>You Simply Can't Beat Free!</p>"
p4
sS'appid'
p5
S'409147624'
p6
s.