(dp0
S'title'
p1
VAngry Birds Free
p2
sS'description'
p3
S'<p>The survival of the Angry Birds is at stake. Dish out revenge on the green pigs who stole the Birds\xe2\x80\x99 eggs. Use the unique destructive powers of the Angry Birds to lay waste to the pigs\xe2\x80\x99 fortified castles. <br/><br/>Angry Birds Free features:<br/><br/>- 24 LEVELS NOT AVAILABLE IN THE FULL GAME<br/>- 8 MINI EPISODES<br/>- GAME CENTER SUPPORT<br/>- LEADERBOARDS AND ACHIEVEMENTS<br/><br/>Angry Birds Free features challenging physics-based demolition gameplay, and lots of replay value. The 24 levels, set in 8 mini episodes, have been created specifically for Angry Birds Free. Each of the levels requires logic, skill, and brute force to crush the enemy.\xe2\x80\xa8\xe2\x80\xa8<br/><br/>Protect wildlife and help save the Angry Birds!<br/><br/>Terms of Use: http://www.rovio.com/eula<br/>Privacy Policy: http://www.rovio.com/privacy<br/><br/>This free version of Angry Birds contains third party advertisements. Please see our privacy policy for additional information.</p>'
p4
sS'appid'
p5
S'409807569'
p6
s.