(dp0
S'title'
p1
VLegendary Wars
p2
sS'description'
p3
S'<p>Over 2 Million downloads and counting. Get it now and find out why Legendary Wars was named one of the "best games of the year!"<br/><br/>*Runner-up Winner: Best App Ever Award for top Strategy Game of 2011.<br/>*Winner of top Game app for MacWorld\'s Top 25 Apps of all time!<br/><br/>Welcome to Legendary Wars. Take command of your heroes. Build up massive armies to destroy the undead forces of the Netherworld! It\'s time to fight back!<br/><br/>PRESS QUOTES:<br/>***************<br/>"There\'s an amazing amount of gameplay packed into this iPhone game. Liv Games may have finally toppled Plants Vs. Zombies as my go-to form of mobile entertainment".<br/>-Kotaku<br/><br/>"There\'s so much variety and so many things to work towards that I\'ve been having an absolutely fantastic time playing through it".<br/>-Touch Arcade<br/><br/>"Legendary Wars is a must have title. 4/4"<br/>-Slide to Play<br/><br/>"It delivers a unique and enjoyable gaming experience that few other games match." 9/10<br/>-MacWorld <br/><br/>"Legendary Wars is an absolutely gigantic castle/lane defense title, with deep RPG elements. The quest is huge and varied, so fans of light strategy should grab Liv Games\' modern classic."<br/>-IGN<br/><br/>****************<br/>Thank you to all our fans! We really appreciate Your fantastic reviews! New content is on the way! Legendary Wars 2.0 will be our biggest update yet! <br/><br/>Legendary Wars Features:<br/><br/>-Huge world to Explore<br/>Campaign mode features 5 lands and over 50 levels each with unique gameplay and secret unlockable modes.<br/> <br/>-Unique Gameplay: Action-RTS-RPG<br/>Take direct control of any hero on the battlefield and unleash their special attacks! Command huge armies and destroy the monster horde. Features a variety of gameplay styles including; castle defense, castle siege, ambush, side-scrolling, free build, and Hero control.<br/> <br/>-Gorgeous Retina graphics and animation<br/>6 beautifully detailed environment with eye-popping parallax scrolling, and a whole cast of charming characters in a visually stunning experience.<br/><br/>-ZOMG Monsters!<br/>Battle Skullys, Zombies, Wolfys, Vamps, Trolls, Gargoyles and Dragons designed with AI to hunt you down. Each monster is also equipped with their own unique special attacks that will keep you challenged until the last epic battle.<br/> <br/>-New gear and attacks<br/>Upgrade your heroes through the game to unlock powerful new attacks and 4 Tiers of Legendary Armor per character.<br/> <br/>-Epic Soundtrack<br/>Beautiful orchestrated soundtrack written exclusively for Legendary Wars. This is what games need to sound like.<br/> <br/>&amp; the fun is not over yet!<br/>Unlock more than 13 endless modes and multiple difficulties that will allow you to put your upgraded heroes (and your own personal skill) to the test. <br/><br/>Min Requirements: 2nd Gen Device will experience slowdown with lots of units on screen.<br/><br/>Follow us on twitter.com/LivGames<br/>Add Legendary Wars on facebook!<br/><br/>Send us feedback at:<br/>www.livgames.com</p>'
p4
sS'appid'
p5
S'413423472'
p6
s.