(dp0
S'title'
p1
VTap Pet Hotel
p2
sS'description'
p3
S"<p>It's your own brand-new pet hotel! What will you do with it?<br/><br/>Build your own personalized pet hotel with all of your favorite adorable animals. Raise and breed hundreds of friendly pets to grow your hotel into a world-class destination.<br/><br/>Be a careful hotel manager, and you'll be rewarded with happy pet families!<br/><br/>~~ An adorable family of dragons JUST checked in! ~~<br/><br/>Download this game to:<br/>\xe2\x80\xa2       Collect the world\xe2\x80\x99s cutest pets.<br/>\xe2\x80\xa2       Nurture and care for your lovable pets to make them happy.<br/>\xe2\x80\xa2       Breed your pets to make adorable baby animals and pet families--or crossbreed to discover new rare pets!<br/>\xe2\x80\xa2       Decorate your hotel with tons of unique items.<br/>\xe2\x80\xa2       Play with your friends! Game Center, Facebook, and Twitter support.<br/><br/>This fun game is brought to you by Pocket Gems, the makers of Paradise Cove and Tap Zoo!<br/><br/>***************<br/><br/>Rate Tap Pet Hotel 5 stars in the App Store, so we can keep making exciting features and pets for you!<br/><br/>Like Tap Pet Hotel on Facebook!  http://www.facebook.com/TapPetHotel<br/><br/>Follow @TapPetHotel on Twitter!<br/><br/>Please note that Tap Pet Hotel is free to play, but you are able to purchase game items with real money. If you don\xe2\x80\x99t want to use this feature, please disable in-app purchases.<br/><br/>For any questions, problems, or suggestions please email support@pocketgems.com</p>"
p4
sS'appid'
p5
S'415569164'
p6
s.