(dp0
S'title'
p1
VDesign This Home
p2
sS'description'
p3
S"<p>The most popular home design game in the world with over 8,000,000 players!<br/>Over 200,000 five star reviews and #1 around the globe!<br/><br/>\xe2\x98\x85\xe2\x98\x85DESIGN YOUR DREAM HOME!\xe2\x98\x85\xe2\x98\x85<br/>Have you ever wanted to build, design and decorate your perfect dream home? Now you can in App Minis\xe2\x80\x99 latest game, Design This Home\xe2\x84\xa2!<br/><br/>Become a superstar designer as you decorate and expand your house! Customize every element of your home: arrange furniture, put up cabinets, paint the walls, renovate the floors and more - anything is possible in Design This Home\xe2\x84\xa2! Increase your home's value and collect income from your residents - the nicer the home, the more cash and XP you'll earn!<br/><br/>\xe2\x98\x85\xe2\x98\x85YOUR HOME - YOUR STYLE\xe2\x98\x85\xe2\x98\x85<br/>Incredible variety! Choose from different styles ranging from modern, traditional, country, Southwestern, European, Asian, Victorian and many more!<br/><br/>Nearly 500 items to customize your house with! No other game in the App Store has this much variety!<br/><br/>\xe2\x98\x85\xe2\x98\x85DREAM IT, BUILD IT\xe2\x98\x85\xe2\x98\x85<br/>Your creativity shouldn't be constrained to a single space - you have an entire house to decorate to your heart's content. Customize your residents, share your house with your friends, clean and fix up your home, and earn rewards by completing tasks.<br/><br/>In Design This Home\xe2\x84\xa2, there really is no place like home!<br/><br/><br/>FEATURES:<br/><br/>\xe2\x9e\x94 Nearly 500 items - the largest home design game in the App Store<br/><br/>\xe2\x9e\x94 Expertly crafted high-quality retina art and animation<br/><br/>\xe2\x9e\x94 Customize every aspect of your home, from the floors to the walls and everything else!<br/><br/>\xe2\x9e\x94 Nine full-sized rooms to construct and decorate<br/><br/>\xe2\x9e\x94 Choose from six beautiful floor plans!<br/><br/>\xe2\x9e\x94 Own multiple homes!<br/><br/>\xe2\x9e\x94 Add your friends as your house residents<br/><br/>\xe2\x9e\x94 Frequent updates, new items, seasonal decorations, tasks, and more<br/><br/>\xe2\x9e\x94 Intuitive and easy to play for all ages<br/><br/>\xe2\x9e\x94 Universal app - play on either your iPhone, iPod Touch or iPad!<br/><br/>\xe2\x9e\x94 Share your home with your friends over Facebook, Twitter and email<br/><br/>\xe2\x98\x85NOTE: DTH has a minimum requirement of iOS 4.0 and an iPhone 3GS, iPod touch 3G (16gb/32gb), or iPad\xe2\x98\x85<br/><br/>_______________________________________<br/>Design This Home is an ever-expanding game with new content planned regularly.<br/><br/>FUTURE FREE UPDATES: New items, new residents, new floor plans, gardens and landscaping, neighbors, monthly contests and more!<br/><br/>We want to hear from you! What would like to see in Design This Home? Let us know by reviewing the game or visiting our website!<br/><br/>Design This Home\xe2\x84\xa2 is free to play and also offers in-game currency that can be purchased.  If you would like to prevent yourself or others from making purchases, please turn off In-App purchasing in your device settings.<br/>__________________________</p>"
p4
sS'appid'
p5
S'417272785'
p6
s.