(dp0
S'title'
p1
VZombie Life
p2
sS'description'
p3
S'<p>From the developers of the hit game Zombie Farm, The Playforge presents ZOMBIE LIFE\xe2\x84\xa2: a life simulation with zombies!<br/><br/>As a newly risen Zombie in an unfamiliar town, you must integrate yourself into society. Keep your zombie nature hidden as you build a career, get fashionable, own a home and live life to the fullest!<br/><br/>Even zombies need a life!<br/><br/>\xe2\x9e\xad FUN and colorful story about blending in with people.<br/>\xe2\x9e\xad ACHIEVE the highest social status possible by collecting furniture and clothing.<br/>\xe2\x9e\xad DECORATE your home with the coolest stuff.<br/>\xe2\x9e\xad DRESS UP your zombie in silly outfits.Tons of clothing options. <br/>\xe2\x9e\xad CUSTOMIZE the way you look by trying different features and hairstyles.<br/>\xe2\x9e\xad WORK jobs to make a living and climb the corporate ladder.<br/>\xe2\x9e\xad BITE and scare people for fun.<br/>\xe2\x9e\xad HANG OUT and engage in random recreational activities.<br/>\xe2\x9e\xad EXPLORE various establishments and different towns.<br/><br/><br/>JOIN THE COMMUNITY <br/>Find out more at zombielife.com<br/><br/>GET SUPPORT<br/>http://theplayforge.zendesk.com<br/><br/>THE PLAYFORGE\xe2\x84\xa2<br/>Makers of ZOMBIE FARM, the #1 zombie game on the App Store<br/>Visit us at theplayforge.com<br/>Twitter twitter.com/theplayforge</p>'
p4
sS'appid'
p5
S'419224311'
p6
s.