(dp0
S'title'
p1
VPimp Your Screen - Your Device Never Looked Cooler
p2
sS'description'
p3
S"<p>SALE! 50% OFF! Enjoy the new content! Download NOW! <br/><br/>Pimp Your Screen is an award-winning app that helps you customize the look of your device by giving you an exclusive selection of specially designed backgrounds, icon skins, app shelves, neon combos and many other eye candies. <br/><br/>You no longer have to set the image you prefer first and then go back to the Home screen and see how it looks with the icons on it. Pimp Your Screen has an instant preview feature that allows you to quickly preview your new background or app shelf. <br/><br/>Features: <br/><br/>* Retina resolution images for iPhone 4/4S/5, iPod touch 4th/5th gen and the new iPad <br/>* Standard resolution images for iPhone/3G/3GS, iPod touch and iPad/iPad 2 <br/>* Icon Skins/App Shelves/Neon Combos <br/>* A million different combinations, variety is the spice of life <br/>* Categorized view <br/>* New and Popular tabs <br/>* Landscape and Portrait images available for iPad <br/>* Share your screens on Facebook, Twitter, Tumblr or email <br/>* Lock Screen Themes <br/>* Home Screen Themes <br/>* Universal application, install once, use it across all devices <br/><br/>Bring some color and glow into your everyday life and change the look of your device every single day. It's time to Pimp Your Screen! <br/><br/>iOS 6 users, please make sure you have enabled Pimp Your Screen in your device's Settings/Privacy/Photos. <br/><br/>We add new eye candies daily. Just tap 'New' to see updates.</p>"
p4
sS'appid'
p5
S'419864550'
p6
s.