(dp0
S'title'
p1
VTemple Run
p2
sS'description'
p3
S'<p>"In pretty much every treasure hunting adventure movie there\xe2\x80\x99s one specific scene in which the plucky hero finally gets his hands on the treasure but then has to navigate a maze of booby traps in order to get out alive. Temple Run is this scene and nothing else. And it\xe2\x80\x99s amazing." - SlideToPlay.com<br/><br/>From the makers of the award-winning best-seller Harbor Master\xc2\xae comes the most exhilarating running game on the App Store. Test your reflexes as you race down ancient temple walls and along sheer cliffs. Swipe to turn, jump and slide to avoid obstacles, collect coins and buy power ups, and see how far you can run! <br/><br/>REVIEWS<br/><br/>\xe2\x98\x85 "Best endless running game in the App Store\xe2\x80\xa6 You\'ll love every minute." - AppleNApps.com<br/><br/>\xe2\x98\x85 Voted by TouchArcade Forums as Game of the Week<br/><br/>\xe2\x98\x85 One of TouchArcade\'s Best Games of the Month<br/><br/>\xe2\x98\x85 "Most thrilling and fun running game in a while, possibly ever." - TheAppera.com<br/><br/>\xe2\x98\x85 "A fast and frenzied iPhone experience." - IGN.com<br/><br/>\xe2\x98\x85 "Very addicting\xe2\x80\xa6 definitely a very different running game." - Appolicious.com<br/><br/>FEATURES <br/><br/>\xe2\x98\x85 Simple swipe and tilt controls that are easy to use and just feel right <br/>\xe2\x98\x85 Level up your character and use crazy powerups <br/>\xe2\x98\x85 Original 3D running mechanic combining turning, jumping, sliding and tilting - the first of its kind! <br/>\xe2\x98\x85 Play as 7 different characters!<br/>\xe2\x98\x85 Game Center Leaderboards and Achievements to compete with your friends <br/>\xe2\x98\x85 Incredibly fun, just one more time, endless game play!</p>'
p4
sS'appid'
p5
S'420009108'
p6
s.