(dp0
S'title'
p1
VPictorial
p2
sS'description'
p3
S"<p>The New York Times:   Pictorial, a game involving spatial reasoning, has earned fantastic ratings from iTunes users. The gameplay is challenging, the graphics are compelling...<br/><br/>#1 Educational Game in USA, Canada, Russia, Germany, Mexico and other countries.<br/><br/>How quickly you can guess what pictures are hidden from you in the night sky full of stars?<br/>Can you discover the story behind the dance of snowflakes in the arctic blizzard?<br/>Will you be the first to solve the mystery of the pirate's map?<br/><br/>### Highlights ### <br/> - Helps to develop the Spatial Reasoning* skill<br/> - Fun and simple control<br/> - Six different storylines: Night City, Arctic, Treasure Island, Fairy Forest, Halloween and Sea World<br/> - Runs smoothly with good fps even on older devices<br/> - Retina display<br/> - Game Center<br/><br/>* Spatial reasoning is a common part of intelligence tests, pre-employment tests and admission tests to certain educations. Also spatial reasoning is generally regarded as one of the most basic reasoning abilities together with verbal reasoning, logical reasoning, numerical reasoning and abstract reasoning.<br/><br/><br/>### Notes ###<br/><br/>New storyline and new levels are coming soon in the next update.<br/><br/><br/><br/>Become a fan of Pictorial on Facebook: <br/>http://www.facebook.com/CloudGears <br/><br/>\xe2\x80\xa8Follow Pictorial on Twitter: <br/>@CloudGears</p>"
p4
sS'appid'
p5
S'420488522'
p6
s.