(dp0
S'title'
p1
VFashion Story
p2
sS'description'
p3
S'<p>Welcome to Fashion Story\xe2\x84\xa2, the stylish new game in TeamLava\'s hit virtual world "Story" series! Fashion-hungry consumers are on the sidewalk waiting for the doors to your hot new clothing boutique to open. Choose and stock the very latest fashions and designs, then layout the store and changing rooms before preparing for the shopping rush.<br/><br/>- Customize and accessorize your own character, choosing from a variety of make-ups, hairstyles and clothing lines!<br/>- Unlock trendy designer clothes lines and innovative stylish accessories, placing them in your store to draw trendsetting customers in from far and wide.<br/>- Showcase your style and creativity to design the layout and decor for a stunning fashion boutique.<br/>- Visit your friends\' boutiques and "like" items in their stores to give them a free gift.<br/>- Invite your Facebook friends to be your neighbors.<br/>- FREE updates with new clothing, accessories, character make-up and boutique decorations every week!<br/>- It\'s FREE!</p>'
p4
sS'appid'
p5
S'420590864'
p6
s.