(dp0
S'title'
p1
VAngry Birds Rio
p2
sS'description'
p3
S"<p>What happens when everyone's favorite fierce fowl get caged and shipped to Rio? They get very angry!<br/><br/>In Angry Birds Rio, the original Angry Birds are kidnapped and taken to the magical city of Rio de Janeiro, where they eventually escape their captors and set out to save their friends, Blu and Jewel \xe2\x80\x93 two rare macaws and the stars of the hit motion picture, Rio. Angry Birds Rio pairs the physics-based gameplay of the original game with unique twists based on the film.<br/><br/>Angry Birds Rio features:<br/>- Six fantastic episodes with 180 exciting levels, plus 12 bonus levels!<br/>- Completely new achievements!<br/>- Special Hidden fruits - discover them all!<br/>- Put your Angry Birds skills to the ultimate test in spectacular boss fights!<br/><br/>Follow us on Twitter:<br/>http://twitter.angrybirds.com<br/><br/>Become a fan of Angry Birds on Facebook!<br/>http://facebook.angrybirds.com<br/><br/>Terms of Use: http://www.rovio.com/eula<br/><br/>Privacy Policy: http://www.rovio.com/privacy</p>"
p4
sS'appid'
p5
S'420635506'
p6
s.