(dp0
S'title'
p1
VMy Horse
p2
sS'description'
p3
S'<p>Live the dream of owning and looking after a realistic horse, and share the experience with your friends! <br/><br/>HORSE CARE <br/>Care for your horse by grooming, feeding and treating it. Build a bond together in a wide range of interactive 3D activities. And, when you\xe2\x80\x99re ready, there are eight different breeds to collect and look after! <br/><br/>COMPETITIONS <br/>Exciting show jumping events are waiting for you! Practice makes perfect as you train to compete in a series of challenging competitions. Keeping your horse happy and healthy is the key to success! Will you reach the World Championships? <br/><br/>AWESOME IN-GAME CAMERA <br/>Take pictures of your horse in action as it plays and eats in the paddock \xe2\x80\x93 it\xe2\x80\x99s as if you\xe2\x80\x99re really there! <br/><br/>SOCIAL GAMEPLAY <br/>Help each other out: visit your friends\' stables to look after their horses \xe2\x80\x93 many hands make light work! <br/><br/>AMAZING GRAPHICS <br/>My Horse looks amazing. Watch how your horse moves and how its ears tell you its mood. Marvel at the Pinto horses \xe2\x80\x93 each one looking unique. Or soak up the atmosphere during a prestigious show jumping competition. My Horse brings you into a world that you won\xe2\x80\x99t want to leave. <br/><br/>Download My Horse now to look after your very own horse! <br/><br/>Make sure you play online in order to get access to the latest content and features, as well as ensuring that your profile is saved should anything happen to your device.<br/><br/>PLEASE NOTE! My Horse is free to play, but it contains items that can be purchased for real money. You can toggle these purchases on/off in the "Restrictions" menu on your device.<br/><br/>* Works on iPhone 4S, iPhone 4, iPhone 3GS, iPod touch (3rd and 4th gen),  and iPad / iPad 2. *<br/> <br/><br/>Requires iOS 4.0 or later. <br/><br/>My Horse is published by NaturalMotion Games and developed by MunkyFun, Inc. <br/><br/>------------------------------------- <br/><br/>** DON\xe2\x80\x99T MISS OUR OTHER GAMES!! Backbreaker, Backbreaker 2, Jenga, Icebreaker Hockey, NFL Rivals **</p>'
p4
sS'appid'
p5
S'421167112'
p6
s.