(dp0
S'title'
p1
VMagic Piano
p2
sS'description'
p3
S'<p>From Bruno Mars to Mozart, play the hottest songs effortlessly on the #1 piano game, now also available in HD for iPad! Get free songs every day and enjoy the largest catalog of songs in any piano app. Turn on game mode to unlock achievements and free songs, or just relax and play your favorite tunes. Join the over 10 million Magic Piano players and experience the fun of playing piano - no lessons needed! <br/><br/>Featured in the New York Times, TIME, MacWorld, as the Apple iPhone App of the Week and one of Apple\'s "Amazing Apps on iPhone 5," Magic Piano lets you experience the joy of making music and sharing your performances with the world. <br/><br/>OVER 500 SONGS - NEW SONGS ADDED EVERY WEEK! <br/>Choose from the largest song catalog of any piano app.<br/><br/>-Hot new hits are added to the app regularly, so check back for new releases and a FREE SONG every day! <br/>-Earn new songs by playing and by watching videos<br/>-Have an iPhone and iPad? Your songs will sync across multiple devices!<br/><br/>Current songs in the app include: <br/><br/>POP:<br/>\xe2\x80\xa2 Call Me Maybe<br/>\xe2\x80\xa2 Moves Like Jagger<br/>\xe2\x80\xa2 Boyfriend<br/>\xe2\x80\xa2 Love You Like a Love Song<br/>\xe2\x80\xa2 I Won\'t Give Up<br/>\xe2\x80\xa2 The Lazy Song<br/><br/>ROCK: <br/>\xe2\x80\xa2 Clocks (Coldplay) <br/>\xe2\x80\xa2 The Final Countdown<br/>\xe2\x80\xa2 Bring Me to Life <br/>\xe2\x80\xa2 Hey There Delilah<br/>\xe2\x80\xa2 How to Save a Life<br/><br/>CLASSICAL: <br/>\xe2\x80\xa2 Ave Maria <br/>\xe2\x80\xa2 Moonlight Sonata <br/>\xe2\x80\xa2 Ode to Joy <br/><br/>MOVIES AND MUSICALS:<br/>\xe2\x80\xa2 A Whole New World <br/>\xe2\x80\xa2 Phantom of the Opera <br/>\xe2\x80\xa2 Jurassic Park Theme<br/><br/>Want a song that\'s not available? Suggest songs on Smule\xe2\x80\x99s Facebook page: www.facebook.com/smule <br/><br/>PICK UP AND PLAY EFFORTLESSLY <br/>Magic Piano makes you sound like a piano prodigy - any time, anywhere. Play your favorite songs with your own spin and sound great every time. <br/>-Follow beams of light to guide your fingertips to the correct note. You control the notes, rhythm and tempo, allowing your creativity and expressivity to shine.<br/>-Try out different instruments - change your piano into a harpsichord, Funky 80\'s synth, organ and more! <br/><br/>PLAY YOUR WAY TO THE TOP <br/>Enter the new game play mode and get rewarded for playing! Start off your journey as a Newbie and earn your place as a Piano Virtuoso. <br/>-Level up to unlock achievements and badges, earn free songs and make your way to the top of the song leaderboards. <br/>-Change the difficulty of each song: Easy, Medium, Hard or Automatic to give yourself a unique challenge. <br/><br/>SHARE YOUR PERFORMANCES WITH THE WORLD <br/>Share the beauty of music with your friends and other Magic Piano players. <br/>-Broadcast your performances on the in-app Smule Globe or listen to other players\xe2\x80\x99 songs and give their performances some love. <br/>-Share your pieces through Facebook, Twitter and email. Or invite your friends and give them free songs!</p>'
p4
sS'appid'
p5
S'421254504'
p6
s.