(dp0
S'title'
p1
VThird Blade
p2
sS'description'
p3
S"<p>The Adrenaline that will take you to 3 unique styles of Action!!<br/>Adrenaline RUSH! Third Blade!<br/><br/>\xe2\x98\x85 This game supports English, fran\xc3\xa7ais, Deutsch, \xed\x95\x9c\xea\xb8\x80, \xe4\xb8\xad\xe6\x96\x87\xe7\xae\x80\xe4\xbd\x93, \xe4\xb8\xad\xe6\x96\x87\xe7\xb9\x81\xe9\xab\x94 and \xe6\x97\xa5\xe6\x9c\xac\xe8\xaa\x9e <br/> <br/>Use 3 types of blades\xe2\x80\x94dual wield, one-handed blade, and two-handed sword\xe2\x80\x94to defeat all kinds of vicious monsters as you play along! The ultimate action game filled with endless battles against monsters that keep you immersed in thrill and excitement\xe2\x80\x94Third Blade! <br/><br/>Use Combo gauges that enhance your weapons into 3 stages and be part of this Exquisite Action Drama!<br/>This is what you can call REAL ACTION!<br/><br/>_________________________________________\xc2\xa0<br/><br/>FEATURES<br/><br/>1) 3 Weapons Used in Thrilling Action<br/><br/>- Dual Wield : You can get damaged but can attack enemies with rapid-fire speed as well<br/><br/>- One-handed Blade : Longer attack time than Dual Wield. The most safest and effective way to attack<br/><br/>- Two-handed Sword : Big and heavy, yet makes the most powerful and strongest damage<br/><br/>2) Various Skills with 3 Enhancement Combo Stages<br/><br/>- Each unique weapon holds different skills. Try to add the skill you want the most!<br/><br/>- Experience the 3 enhancement stages for each combo gauge\xe2\x80\x99s unique change!<br/><br/>Stage 1 : Normal Attacks<br/>Stage 2 : Faster Attacks<br/>Stage 3 : Accelerated Attacks with a decrease in skill cool-time!<br/><br/>3) Upgrades available in item shop!<br/>- Destroy all enemies with a stronger weapon!<br/><br/>4) Other Excitements!<br/>- Normal Mode and Arcade Mode, including Training Room, Prison, Tower of Time, and more!<br/><br/>\xe2\x94\x80\xe2\x94\x80\xe2\x94\x80\xe2\x94\x80\xe2\x94\x80\xe2\x94\x80\xe2\x94\x80\xe2\x94\x80\xe2\x94\x80<br/>COM2US GAMES <br/>\xe2\x94\x80\xe2\x94\x80\xe2\x94\x80\xe2\x94\x80\xe2\x94\x80\xe2\x94\x80\xe2\x94\x80\xe2\x94\x80\xe2\x94\x80<br/>- Tiny Farm\xc2\xae<br/>- Derby Days<br/>- 9 Innings: 2013 Pro Baseball<br/>- Homerun Battle 2<br/>- Swing Shot<br/>- IMO: The World of Magic<br/>- Magic Tree by Com2uS<br/>- Super Action Hero<br/>- Slice it!<br/>- Tower Defense\xc2\xae<br/>- Inotia 4<br/><br/>\xe2\x94\x80\xe2\x94\x80\xe2\x94\x80\xe2\x94\x80\xe2\x94\x80\xe2\x94\x80\xe2\x94\x80\xe2\x94\x80\xe2\x94\x80<br/>ABOUT COM2US<br/>\xe2\x94\x80\xe2\x94\x80\xe2\x94\x80\xe2\x94\x80\xe2\x94\x80\xe2\x94\x80\xe2\x94\x80\xe2\x94\x80\xe2\x94\x80<br/>Follow us!<br/>twitter.com/Com2uS<br/><br/>Join Com2uS' Fan Page<br/>facebook.com/Com2uS<br/><br/>Tips and Updates<br/>com2us.com</p>"
p4
sS'appid'
p5
S'421789900'
p6
s.