(dp0
S'title'
p1
VTiny Tower
p2
sS'description'
p3
S'<p>Tiny Tower lets you build a tiny tower and manage the businesses and bitizens that inhabit it!<br/><br/> \xe2\x80\xa8\xe2\x80\xa8\xe2\x98\x85Make money to build new types of floors and attract bitizens to live and work inside.<br/>\xe2\x80\xa8\xe2\x98\x85Special events and VIP visitors will earn you special perks as you build your tower towards the clouds.\xe2\x80\xa8<br/>\xe2\x98\x85Customize the look and placement of each floor and the bitizens that live in them, and upgrade your elevator.<br/>\xe2\x80\xa8\xe2\x98\x85Game Center integration to let you see your friends towers, back up your game and earn awards.<br/>\xe2\x80\xa8\xe2\x98\x85See what is on your bitizens\' minds by peeking at the "BitBook" virtual social network for your tower!</p>'
p4
sS'appid'
p5
S'422667065'
p6
s.