(dp0
S'title'
p1
VOffice Jerk
p2
sS'description'
p3
S'<p>Even the Office Jerk can only take so much.  But why not have some fun finding out?  With a giant cooked turkey maybe?<br/><br/>More than 20 MILLION downloads worldwide!<br/><br/>Working in an office sure can be boring, and it doesn\'t help when some do-good know-it-all sits across from you all day. You know the type: he runs to the boss when you do something wrong, complains when you get the last bag of chips in the snack room or always has a better idea than you.  Well here\'s how you can "pay it back":<br/><br/>THROW:<br/><br/>\xe2\x98\x85 Garden Gnome (NEW ITEM)<br/>\xe2\x98\x85 Ice cream cone<br/>\xe2\x98\x85 Water balloon<br/>\xe2\x98\x85 Computer mouse<br/>\xe2\x98\x85\xc2\xa0Office Jerk bobblehead<br/>\xe2\x98\x85 Thanksgiving turkey<br/>\xe2\x98\x85 Well-chewed, pink bubble gum<br/>\xe2\x98\x85 Honey filled, angry bee hive<br/>\xe2\x98\x85 Yesterday\'s best mobile phone<br/>\xe2\x98\x85 Bag of white fluffy flour<br/>\xe2\x98\x85 Classic computer monitor<br/>\xe2\x98\x85 Shiny red stapler<br/>\xe2\x98\x85 "I \xe2\x99\xa5 my boss" Coffee Mug<br/>\xe2\x98\x85 Stick o\' dynamite<br/>\xe2\x98\x85 Yummy cupcake with sprinkles<br/>\xe2\x98\x85 Standard issue eraser/rubber<br/>\xe2\x98\x85 Crumpled piece of paper<br/>\xe2\x98\x85 A very hard, very fast golf ball<br/>\xe2\x98\x85 Momma\'s own special cream pie<br/>\xe2\x98\x85 Suction cup dart - still funny!<br/><br/>Plus several mystery items!  And we\'re adding new items all the time!<br/><br/>So no longer will you sit back and take it! Grab whatever feels right and fling at his head or his shoulder, or go right for his face.  Click the desk organizer to see what other items you can rain down on that office meanie! Finally wipe that smirk off his face in the feel-good app of the year!<br/><br/><br/>Privacy Policy: http://fluik.com/privacy.php</p>'
p4
sS'appid'
p5
S'423593206'
p6
s.