(dp0
S'title'
p1
VMetalStorm: Wingman
p2
sS'description'
p3
S'<p>Dominate the skies and master the world\xe2\x80\x99s most advanced combat aircraft as you experience the best looking, most action packed jet fighting game for iOS - MetalStorm: Wingman!<br/> <br/>MULTIPLE GAME MODES:<br/>\xe2\x80\xa2 Campaign \xe2\x80\x93 Experience an epic storyline spanning several single player missions.<br/>\xe2\x80\xa2 Versus Mode \xe2\x80\x93 Challenge your friends and enemies in a one-on-one duel!<br/>\xe2\x80\xa2  Survival Mode \xe2\x80\x93Destroy wave upon wave of enemy aircraft with a friend in co-op or on your own!<br/> <br/>FEATURES:<br/>\xe2\x80\xa2 Next-Gen 3D graphics with Retina Display<br/>\xe2\x80\xa2 Gyroscope enabled controls enable full 360-degree flight in 3D space<br/>\xe2\x80\xa2 Perform advanced evasive maneuvers by swiping different directions<br/>\xe2\x80\xa2 Real Time Multiplayer over 3G and Wi-Fi<br/>\xe2\x80\xa2 Play on your TV with AirPlay and an Apple TV for a true HD gaming experience<br/>\xe2\x80\xa2 Customize your aircraft with advanced missiles, machine guns and a deep tech tree<br/>\xe2\x80\xa2 Talk with other players via the optional in-game Voice Chat system<br/>\xe2\x80\xa2 Invite a Game Center friend to help you complete difficult missions<br/><br/>MetalStorm: Wingman requires an internet connection to play (WiFi or 3G).</p>'
p4
sS'appid'
p5
S'425746946'
p6
s.