(dp0
S'title'
p1
VAngry Birds Rio Free
p2
sS'description'
p3
S'<p>Angry Birds Rio Free<br/><br/>What happens when everybody\xe2\x80\x99s favourite fierce fowl get caged and shipped to Rio? They get very angry!<br/><br/>In Angry Birds Rio, the original Angry Birds are kidnapped and taken to the magical city of Rio de Janeiro, where they eventually escape their captors and set out to to save their friends, Blu and Jewel \xe2\x80\x93 two rare macaws and the stars of the upcoming motion picture, Rio.  Angry Birds Rio will pair the physics-based gameplay of the original game with unique twists based on the film.<br/><br/>Angry Birds Rio Free features:<br/>- 12 exciting levels + 15 Rio Golden Beach Ball levels!<br/>- Four episodes!<br/>- New achievements!<br/><br/>Expect plenty more where this came from: Episodic updates throughout 2011!<br/><br/>The most exciting of avian adventures continues! Help the Angry Birds to free their friends and defeat the evil smugglers! Stay tuned for further fun episodes!<br/><br/>Follow us on Twitter for Angry Birds updates and pictures of our new toys:<br/>http://twitter.angrybirds.com<br/><br/>Become a fan of Angry Birds on Facebook:<br/>http://facebook.angrybirds.com<br/><br/>Terms of Use: http://www.rovio.com/eula<br/>Privacy Policy: http://www.rovio.com/privacy<br/><br/>This free version of Angry Birds contains third party advertisements. Please see our privacy policy for additional information.</p>'
p4
sS'appid'
p5
S'426122669'
p6
s.