(dp0
S'title'
p1
VPinterest
p2
sS'description'
p3
S"<p>Pinterest is where you can dream about, plan, and prepare for the<br/>things you want to do in your life. Whether it's vacation plans, new<br/>gadgets, favorite recipes, fashion or the latest home decor, Pinterest<br/>is an easy way for you to make the most of it. Quickly and easily save<br/>and organize your inspirations with your iPhone or iPad.<br/><br/>Features:<br/>- Pin your inspirations to online pinboards so you can<br/>find them later<br/>- Check out categories to find inspiration for your life in areas like<br/>Design, Travel, or Food and Drink<br/>- Follow boards that interest you to discover even more<br/>- Create new pins with your camera</p>"
p4
sS'appid'
p5
S'429047995'
p6
s.