(dp0
S'title'
p1
VCraigslist Mobile for iPhone_iPod_
p2
sS'description'
p3
S'<p>Craigslist perfectly formatted for your iPhone and iPod.<br/><br/>Craigslist listings with thumbnail photo previews, maps, easy communications with posters, direct access to your Craigslist account, and a lot more!<br/><br/>In addition to the features available at Craigslist.org, unlock many new smart capabilities:<br/>\xe2\x9c\xa7 Map browser<br/>\xe2\x9c\xa7 Multi-city searches<br/>\xe2\x9c\xa7 Communication tools (integrated iPhone/iPod email to respond to posters and forward interesting postings to your friends)<br/>\xe2\x9c\xa7 Photo browser <br/>\xe2\x9c\xa7 Automated Craigslist area selection using GPS positioning<br/>\xe2\x9c\xa7 Posting with photos directly from the app<br/>\xe2\x9c\xa7 Account management &amp; support for multiple Craigslist accounts<br/>\xe2\x9c\xa7 Favorite ads with notes<br/>\xe2\x9c\xa7 Maps and directions<br/><br/>More inside!</p>'
p4
sS'appid'
p5
S'430667358'
p6
s.