(dp0
S'title'
p1
VAnodia
p2
sS'description'
p3
S"<p>Anodia is rated 5 stars by thousands and enjoyed by millions of people. Any hesitation? Just read the Customer Reviews and grab it now! <br/><br/><br/>Play through over 100 handcrafted and unique levels, compete with your friends on Game Center leader boards, unlock over 30 achievements and simply have a lot of fun with Anodia. <br/><br/><br/>\xe2\x98\x85 MAIN FEATURES \xe2\x98\x85 <br/>\xe2\x80\x94 brick breaker genre reinvented <br/>\xe2\x80\x94 fast-paced addictive gameplay <br/>\xe2\x80\x94 easy to pick up and play <br/>\xe2\x80\x94 over 100 handcrafted levels <br/>\xe2\x80\x94 over 20 power-ups and power-downs <br/>\xe2\x80\x94 full Retina Display support on all devices (including the new iPad) <br/>\xe2\x80\x94 touch and tilt controls <br/>\xe2\x80\x94 superb realtime physics <br/>\xe2\x80\x94 Game Center integration <br/>\xe2\x80\x94 universal app <br/>\xe2\x80\x94 it has a rainbow in it <br/><br/><br/>\xe2\x98\x85 MEDIA REVIEWS \xe2\x98\x85 <br/>\xe2\x80\x94 TouchArcade.com: <br/>'All I want is a really awesome modern take on the Breakout formula. Is that so much to ask? Apparently not, because that's exactly what Anodia gives us.' <br/><br/>\xe2\x80\x94 148Apps.com: <br/>'Anodia takes the tried and tested formula of Arkanoid and mixes it up with great style.' <br/><br/>\xe2\x80\x94 Appmodo.com: <br/>'All in, Anodia is a top-notch brick breaker game\xe2\x80\x94possibly even the best for the iOS.' <br/><br/><br/>\xe2\x98\x85 USER REVIEWS \xe2\x98\x85 <br/>'The Screenshots Do NOT Do This Game Justice!!! - Not like any brick breaker I've ever played.' <br/><br/>'Best Brick Breaker Game Since BreakOut in 1975 - If u like brick breakers this is the game for you. Super fun, creative, and perfect for the iOS.' <br/><br/>'REVOLUTIONARY! - A cross somewhere between brick-breaker, pong, and something entirely new! You'll have fun just trying to figure out what it is?! A MUST BUY!' <br/><br/>'Wonderful!!!!! - This is one of the best in the entire app store!Thanks Devs!!!!!' <br/><br/>'Brick Breaker Masterfully Reinvented! - I'm in love with the game! I love brick breakers and this is the best one in my honest opinion.It's original and masterfully crafted with many differents stages and powerups!If you like brick breakers GO GET IT!'</p>"
p4
sS'appid'
p5
S'430656073'
p6
s.