(dp0
S'title'
p1
VCrime City
p2
sS'description'
p3
S'<p>*****#1 free game in 26 countries and counting <br/>*****#1 free app in 10 countries and counting <br/><br/>Indulge your inner criminal mastermind in Crime City, brought to you by GREE\xe2\x80\x94makers of hit games like Modern War and Zombie Jombie!<br/><br/>Breaking the rules is way more fun than playing by them! <br/><br/>Build your criminal empire, one job at a time! Hit the streets, flex some muscle, and climb your way to the mafia\xe2\x80\x99s highest rank: Crime Boss! The whole city is yours for the taking, if you\xe2\x80\x99re smart enough, tough enough, and willing to do what\xe2\x80\x99s necessary to get the job done. Check your morals at the door and get ready for an adventure that will take you into the city\xe2\x80\x99s seedy underbelly. <br/><br/>Features:<br/><br/>-Massive Multiplayer Online game<br/>-Fight and rob other players LIVE<br/>-Build hotels, casinos, restaurants, and more<br/>-Boost cars, get in fights, and pull of heists <br/>-Invite friends to create strong mafia alliances <br/>-Build factories, bunkers, power plants, and more<br/>- Invite friends to make your alliance stronger<br/>-Make bank from your criminal empire<br/>-Find yourself at the center of a thrilling criminal saga<br/>-Enjoy eye-popping graphics<br/>-150 + powerful weapons and cars to buy<br/>-500 + different jobs <br/>-200 + goals to complete<br/>-80 + properties to own<br/>-60 + areas to explore<br/>-100 + criminal titles to claim<br/><br/>Funzio, the studio behind Crime City, has joined the GREE family to further their shared goal of creating groundbreaking games and delivering them to players around the world! Stay tuned for more hit games from GREE.<br/><br/>Want to take your gaming to the next level? Then come play on GREE\xe2\x80\x94the world\xe2\x80\x99s largest mobile social network. comeplayGREE.com.<br/><br/>Join the fun and share your passion for Crime City with other criminal masterminds:<br/>Forum: www.funzio.com/forum<br/>@CrimeCity<br/>http://facebook.com/crimecity<br/>http://youtube.com/GREEgames<br/><br/>NOTE: <br/>\xe2\x80\xa2This is an ONLINE ONLY game. You must be connected to the Internet to play<br/>\xe2\x80\xa2Works great on iPhone, iPod Touch, and iPad!<br/></p>'
p4
sS'appid'
p5
S'430907397'
p6
s.