(dp0
S'title'
p1
VSiege Hero
p2
sS'description'
p3
S'<p>"Physics puzzle games have always had a safe home with casual gamers, and Siege Hero is easily one of the best!" <br/>-JayisGames.com <br/><br/>"As things stand, Siege Hero already represents a genuinely genre-expanding twist on projectile-based iPhone play" <br/>-PocketGamer (Silver Award - Score 8) <br/><br/>Hero\'s Wanted!! Use strategy and precise aim to tumble down the Fortress\'s and Free the Oppressed. <br/><br/>Tear down the 200 HD castles across three Ages. If you\'re good enough to earn Gold on each castle you\'ll unlock the extra looting levels in the Treasure Map. Over 10-hours of gameplay.<br/><br/>It\'s amazingly realistic HD castle crushing fun!</p>'
p4
sS'appid'
p5
S'431688122'
p6
s.