(dp0
S'title'
p1
VArmy of Darkness Defense
p2
sS'description'
p3
S"<p>NOW FREE FOR A VERY LIMITED TIME!!! Get out your boomstick and rev up your chainsaw! From the makers of PAPER TOSS, STRIKE KNIGHT and NINJUMP comes the definitive Army of Darkness game for iPhone, iPod Touch, and iPad.<br/><br/>In this tug-of-war, casual defense game based on the MGM classic movie, you play Ash, the time-traveling, evil-fighting, S-Mart sales clerk as you defend Lord Arthur's castle and the Necronomicon from the oncoming hordes of evil undead. Of course, you can't do it alone! Call upon multitudes of allies including Lord Arthur, Duke Henry the Red, the Wiseman, and many more to help you in your quest to defend the unholy book and use it to return to your own time. ARMY OF DARKNESS: DEFENSE takes the witty charm of the cult classic movie and combines it with gorgeous graphics and innovative casual gameplay that is certain to entertain any mobile gamer. So, remember the magic words and make sure your shoelace is tied, because this is going to be an epic battle!<br/><br/>Features include:<br/>-Bruce Campbell as Ash Williams<br/>-Beautiful, fully animated graphics<br/>-A wide variety of allies to summon including swordsmen, armored knights, archers, and more<br/>-50 initial waves and an unlockable endless wave<br/>-Awards and leaderboards via Game Center<br/>-More than 100 hilarious quotes from the movie<br/>-Countless hoards of deadites<br/>-Originally composed music score<br/>-Tons of special abilities including the boomstick, the chainsaw, the '88 deathcoaster and many more spells<br/>-All of your favorite characters including Arthur, Henry, Sheila, the Wiseman, Evil Ash, and many more!<br/><br/>Making fun, high quality mobile games is what we strive for at Backflip Studios. We have seen nearly 100,000,000 downloads across our suite of games and we greatly value your continued support and feedback.<br/><br/>Also try some of our other games, including PAPER TOSS, NINJUMP, STRIKE KNIGHT or RAGDOLL BLASTER 2.<br/><br/>Check us out on Twitter: @backflipstudios<br/><br/>Thanks for playing!<br/><br/>ARMY OF DARKNESS \xe2\x84\xa2 &amp; \xc2\xa9 1992 Orion Pictures Corporation.\xc2\xa0 \xc2\xa9 2011 Metro-Goldwyn-Mayer Studios Inc.\xc2\xa0 All Rights Reserved.</p>"
p4
sS'appid'
p5
S'431739110'
p6
s.