(dp0
S'title'
p1
VHappy Park\u2122
p2
sS'description'
p3
S"<p>Can you start with an simple Ferris Wheel and turn it into a World Class AMUSEMENT Park?<br/><br/>**************************************************<br/> THE FIRST-EVER AMUSEMENT PARK GAME FOR IPHONE, IPOD TOUCH and IPAD IS<br/> NOW LIVE IN THE APP STORE!<br/>**************************************************<br/><br/>Note: Happy Park is free to download, but some game items can also be purchased for real money (eg: bucks and coins). If you don't want to use this feature, please disable in-app purchases. <br/><br/>Create the five-star AMUSEMENT park of your dreams! You are just a download away from building and customizing your very own AMUSEMENT Park! Choose which attractions to buy and which Mascots to hire. Have a great time building your own personal AMUSEMENT Park!<br/> <br/>TONS OF AWESOME FEATURES!<br/><br/>- Over 100 attractions to choose from, with more coming in the next release!<br/><br/>- Build Roller Coasters, Water Rides, Gentle Rides, Dark Rides and much more!<br/><br/>- Hire Mascots - Biggy Beary, Puck Puck Chicken, Fairies, Dinos, Penguins, Ducks, Tigers just to name a few\xe2\x80\xa6\xe2\x80\xa6<br/><br/>- Complete fun quests and win rewards! Win:  King Gorilla Show, Great Circus, Epic Wind Flyer, and Mammoth Coaster!<br/><br/>- Build Restaurants, Food Kiosks for your hungry visitors<br/><br/>- Build Restrooms, Info Booth and Toy Stores for visitor comfort<br/><br/>- Hire employees - Ride Operators, Cashiers, Waiters, Janitors!<br/><br/>- Market Your Park  - Buy Billboard, Online, Radio and TV Advertising!<br/><br/>- Create giant fun structures to attract visitors from around the world!<br/><br/>- Decorate your AMUSEMENT park to attract more visitors. Rivers, Trees, Ponds, Lakes, Castles, Gardens, Park Maps, Flags, and Totem-polls\xe2\x80\xa6 the list just goes on!<br/><br/>- Such fun to play!<br/><br/>- Works like a charm on iPod Touch and iPhones 3G, 3GS, and 4.<br/><br/>- Works on iPad 1 and iPad 2.<br/><br/>- Play with friends! - get rewards for having friends and playing with them DAILY!<br/><br/>- Featuring Research Lab - research for exciting, thrilling and wonderful attractions!<br/><br/>Can you discover all the crazy attraction combinations?<br/><br/>Twister + High Hammer Smasher = ???<br/>Wave Pool + Ring The Bell \xc2\xa0= ???<br/>Wiper Out + Monster Truck = ???<br/><br/>Can you discover the Giant Fish Tank or the Unicorn Ride? Download now, and start playing to find out!</p>"
p4
sS'appid'
p5
S'432921216'
p6
s.