(dp0
S'title'
p1
VNyan Cat: Lost In Space
p2
sS'description'
p3
S'<p>** The most popular and most appreciated Nyan Cat game on iPhone/iPad! <br/><br/>"Awesome!" - prguitarman, author of the original Nyan Cat character<br/>WARNING! The Nyan Cat game and music are seriously addictive! Play with Nyan Cat only at your own risk!<br/><br/>iTunes reviews (US and UK):<br/>"Best, game, EVAR!" - Jamiejdjdjdjdj <br/>"This is the beat of the nyan cat games" - Crazyboy4826<br/>"This game is pro!" - Oseycyhycyg <br/>"I can\'t stop playing this Nyantastic game" - Rossw123<br/>"cute game thats fun to play! love the art style &amp; glad it\'s universal! dont like cats, but i DO love this game!" - Starscream1017 <br/><br/>Features for humans:<br/>-powerups (magnet, ...)<br/>-leaderboards &amp; achievements (Game Center)<br/>-score multipliers<br/>-Tac Nayn game mode<br/>-Nyan Cat skins<br/>-different background themes<br/>-different forms of NYAN CAT (Supernyan, ...) and TAC NAYN<br/>-UNIVERSAL APP (supports iPad/iPhone/iPhone4/iPod)<br/>-twitter and facebook integration<br/>-iCloud backup<br/>-unlocked themes and skin packs are synchronised between your devices via iCloud<br/>-child mode<br/><br/>Features for Nyans:<br/>nyan nyan nyan nyan POWERUPS nyan nyan nyan ACHIEVEMENTS nyan nyan SUPERNYAN nyan ONLINE HIGH SCORES nyan nyan RETINA DISPLAY nyan nyan nyan UNIVERSAL APP nyan BEAUTIFUL PIXEL ART nyan nyan nyan<br/><br/>Facebook: http://www.facebook.com/NyanCatLostInSpace<br/>Official Nyan Cat fan page: http://www.facebook.com/NyanCatWorld</p>'
p4
sS'appid'
p5
S'433592592'
p6
s.