(dp0
S'title'
p1
VTop Girl
p2
sS'description'
p3
S'<p>Are you addicted to shopping? Do you dream of being a supermodel? Love to date guys?<br/><br/>Become the TOP GIRL!<br/><br/>Do gigs, shop, dress, go clubbing, and flirt with HOT guys! Create FABULOUS outfits and have fun with your new boyfriend. Kiss him, buy him gifts, and go on exciting dates! Capture and save photos of all your special moments together!<br/><br/>Features:<br/>- GET THE PERFECT LOOK with 600+ unique shoes, purses, accessories &amp; clothes!<br/>- FLIRT WITH &amp; DATE 250+ hot guys of your choice! <br/>- STRUT YOUR STUFF and kick off a blazing hot modeling career!<br/>- GO OUT &amp; PARTY at over 20 fabulous parties and clubs!<br/>- JET SET from LA to NYC to VEGAS!<br/><br/>***VIVA LAS VEGAS!<br/>Explore the city that never sleeps! Splurge on luxury fashions in exclusive new stores and invite your friends to join using Facebook Connect!<br/><br/>iOS 5 NOTE: If you upgrade your device to iOS 5, please choose to back-up your app data. If you do not, all of your progress in Top Girl will be lost. <br/>__________________________________________<br/><br/>Notes:<br/>-Requires iOS 4.0+<br/>-Compatible with iPhone 3GS, iPhone 4, iPod Touch 3rd and 4th Generations, iPad 1 and 2 <br/>-3G or Wi-Fi access is required for In-App Purchasing <br/>-To vote for friends on the runway, log into Game Center and make sure you have 3G or Wi-Fi access<br/>-This game can be played offline (In-App Purchasing not available)<br/>__________________________________________<br/><br/>Payments FAQ:<br/><br/>Does Top Girl allow in-game payments?<br/>Top Girl is a free-to-play game, but like many games in the App Store, there is the option of purchasing in-game items using real money. Turn off in-app purchases on your device if you\xe2\x80\x99d like to disable this feature.<br/>__________________________________________<br/><br/>Addicted to Top Girl? Give us five stars!<br/>Contact Support: topgirl@crowdstar.com<br/>Twitter: @topgirlgame<br/>Facebook: www.facebook.com/topgirlgame<br/>Visit Crowdstar: www.crowdstar.com</p>'
p4
sS'appid'
p5
S'435001431'
p6
s.