(dp0
S'title'
p1
VCityVille Hometown
p2
sS'description'
p3
S"<p>Create the town of your dreams in CityVille Hometown! (Note to CityVille web players: this game does not connect to your web city, but it\xe2\x80\x99s a new and uniquely mobile game.)<br/> <br/>Help a cast of delightful characters, follow their stories, and be rewarded with special items. Watch your town come to life with a wide assortment of houses, businesses, and fantastic decorations! Name your businesses and residents to make your town unique.<br/> <br/>Game Features: <br/><br/>\xe2\x98\x85 Attract new residents by building a variety of homes. <br/>\xe2\x98\x85 Make it your own - Choose who moves in and customize names for your residents and buildings. <br/>\xe2\x98\x85 Find your Facebook friends, visit their towns, and get their help in building your town.  <br/>\xe2\x98\x85 Grow your economy by building businesses to earn coins. <br/>\xe2\x98\x85 Plant and harvest crops for your businesses.<br/>\xe2\x98\x85 Help your residents achieve special goals. <br/>\xe2\x98\x85 Beautify your town with decorations to earn bonus payouts on businesses. <br/><br/>\xe2\x80\xa2\xe2\x80\xa2 Note: A network connection is required to play. Compatible with iPhone 4S, 4 &amp; 3GS, iPod touch 2nd, 3rd &amp; 4th gen, and iPad 1 &amp; 2. Requires iOS 4 or later.<br/><br/>*******************************************************************<br/>Like CityVille Hometown on Facebook! <br/>http://www.facebook.com/CityVilleHometown <br/><br/>Don\xe2\x80\x99t forget to rate CityVille Hometown if you love your town! <br/>*******************************************************************<br/>Use of this application is governed by the Zynga Terms of Service. Collection and use of personal data are subject to Zynga's Privacy Policy. Both policies are available in the Application License Agreement below as well as at www.zynga.com. Social Networking Service terms may also apply.</p>"
p4
sS'appid'
p5
S'436018237'
p6
s.