(dp0
S'title'
p1
VDomino's Pizza USA
p2
sS'description'
p3
S'<p>Did Domino\xe2\x80\x99s just launch an iPhone app? Oh Yes We Did! You can now use your iPhone or iPod touch to order. It\xe2\x80\x99s convenient, easy and fun! <br/><br/>FEATURES:<br/>The ability to order from almost any Domino\xe2\x80\x99s in the U.S. (Nearly 5,000 locations)<br/>Access to all the items on our national menu.<br/>Find coupons available for use at your selected store.<br/>The app will remember your most recent store and other useful information.<br/>We do not require you to login, but you can login to access your saved addresses. <br/>In app credit or debit card payment.<br/>Use Domino\xe2\x80\x99s Tracker to follow your order from the \xe2\x80\x9cmake line\xe2\x80\x9d, into the oven, then out for delivery or ready for pickup!<br/><br/><br/>Requirements:<br/>An iPhone or iPod touch running iOS 4.3 or above.<br/><br/><br/>If you have questions or comments about this app we would love to read them. Please email iphone@dominos.com<br/><br/>Prefer to use the desktop version? Please visit http://www.dominos.com</p>'
p4
sS'appid'
p5
S'436491861'
p6
s.