(dp0
S'title'
p1
VContract Killer: Zombies
p2
sS'description'
p3
S'<p>MAJOR UPDATE: New Helicopter missions, new guns and new zombies!!!<br/><br/>You have killed more criminals than you can count. Now it\xe2\x80\x99s time to face the apocalypse and blow the crap out of thousands of zombies! From the team that brought you Contract Killer comes CONTRACT KILLER: ZOMBIES.<br/><br/>\xe2\x80\x9cToday is just another day. Since the horde came we\xe2\x80\x99ve been lucky to see tomorrow. Came up fast, out of nowhere. Zombies! Walking dead meat. I just kill \xe2\x80\x98em\xe2\x80\xa6 and keep on killin\xe2\x80\x99 em.<br/><br/>I\xe2\x80\x99m not a hero\xe2\x80\xa6 just trying to survive. They call me \xe2\x80\x9cShooter\xe2\x80\x9d, because that\xe2\x80\x99s what I do. Shooting zombies is the only thing I\xe2\x80\x99m good at\xe2\x80\xa6 and I\xe2\x80\x99m good. DAMN good.\xe2\x80\x9d<br/><br/>Save the remnants of humanity by infiltrating the zombie-infested city, stocking up on supplies, rescuing civilians and ushering them to safety while slaughtering every zombie in your path! <br/><br/>EXPLODING ZOMBIE BRAINS is just about the best fun you can have these days! <br/><br/>HELP THE SURVIVORS and assist Evelyn as she goes on supply runs and special missions.<br/><br/>Build up an arsenal of AWESOME ZOMBIE KILLING WEAPONS and gear including sniper rifles, assault guns and grenade launchers! <br/><br/>Take aim and collect bonuses for HEADSHOTS and MULTI-KILLS!<br/><br/>FOLLOW US at<br/>Twitter @glumobile<br/>facebook.com/glumobile<br/><br/>Contract Killer: Zombies is free to play, but you can choose to pay real money for some extra items, which will charge your iTunes account.  You can disable in-app purchasing by adjusting your device settings.</p>'
p4
sS'appid'
p5
S'438979179'
p6
s.