(dp0
S'title'
p1
VDragonVale
p2
sS'description'
p3
S'<p>"Just between you and me, dragon parks are pretty rad." ~ TouchArcade.com<br/><br/>Hatched a dragon lately? Play DragonVale and raise, feed and breed your own lovable dragons.<br/><br/>PLEASE NOTE!  DragonVale is completely free to play, but some game items can also be purchased for real money. If you don\'t want to use this feature, please disable in-app purchases. DragonVale requires an internet connection to play (3G or WiFi).<br/><br/>ALSO NOTE!  By playing DragonVale you may find yourself hopelessly addicted to hatching and caring for adorable dragons. You may find yourself feeding them treats, watching them grow, building and decorating their habitats, and inviting others in to view them in their floating island home.  You may even find yourself choosing pairs for breeding, or racing dragons to compete for awesome prizes.  <br/><br/>DragonVale is an enticing social experience from Backflip Studios that is sure to keep you entertained.  You get:<br/><br/>\xe2\x98\x85 Dozens of adorable dragons to raise<br/>\xe2\x98\x85 A magical island you build in the sky<br/>\xe2\x98\x85 Custom habitats where dragons graze<br/>\xe2\x98\x85 Dragon races where you win great prizes<br/>\xe2\x98\x85 Paths and decorations to delight your visitors<br/>\xe2\x98\x85 Farms to grow dragon treats<br/>\xe2\x98\x85 Full-color visuals and sparkling animations<br/>\xe2\x98\x85 An original Renaissance music soundtrack<br/>\xe2\x98\x85 Support for Game Center and Facebook to visit other parks and trade gifts<br/><br/>Don\'t just take our word for it. Here\'s what the press has to say about DragonVale:<br/><br/>"This new title has a depth and higher quality of art that\xe2\x80\x99s reminiscent of the work that went into early console games." ~ VentureBeat.com<br/><br/>"Jurassic Park was cool, but really it doesn\'t have anything on DragonVale." ~ Gamezebo.com<br/><br/>"It builds up nicely, the art is colorful and fun." ~ TUAW.com<br/><br/>And to think it all started with an egg.<br/><br/>\xe2\x9e\xa4 Install DragonVale today. It\'s free! <br/><br/>______________________________<br/><br/>DragonVale is brought to you by Backflip Studios, makers of absurdly fun mobile games like Paper Toss, NinJump, Ragdoll Blaster, Strike Knight, Army of Darkness, Shape Shift and Graffiti Ball. Search the App Store for "Backflip Studios" to see all our apps.<br/><br/>Follow @BackflipStudios on Twitter for free game announcements and other updates.<br/><br/>Thanks for playing!</p>'
p4
sS'appid'
p5
S'440045374'
p6
s.