(dp0
S'title'
p1
VHanging With Friends
p2
sS'description'
p3
S"<p>This version of Hanging With Friends is AD FREE!!!!!!!<br/><br/>The creative geniuses behind Words With Friends are pleased to bring you your next word game addiction: Hanging With Friends! <br/><br/>Hanging With Friends brings a brand new twist to the classic game of hangman that adds creativity, strategy and fun for all ages. Build mystery words to stump, amuse or impress your friends, but be prepared to flex those brain muscles as you decipher the words they send back to you.<br/><br/>Key Features:<br/>\xe2\x80\xa2 Cute characters in perilous situations<br/>\xe2\x80\xa2 Instant replay lets you see your opponent\xe2\x80\x99s guesses<br/>\xe2\x80\xa2 Use strategic lifelines for hints <br/><br/>Built on the Games With Friends platform:<br/>\xe2\x80\xa2 Turn based design lets you play up to 20 games simultaneously<br/>\xe2\x80\xa2 Play with friends or find a match with a random opponent<br/>\xe2\x80\xa2 Stay in touch with friends and family with in-game chat messaging <br/>\xe2\x80\xa2 Push notifications tell you when it\xe2\x80\x99s your turn<br/>\xe2\x80\xa2 Find friends to play with easily using Facebook Connect<br/><br/><br/>*At this time Hanging With Friends requires iOS4+. If you are still running an old version of iOS on your device, please sync with iTunes and get the latest device update.<br/><br/>_________________________________________<br/><br/><br/>Not ready to buy? Try Hanging With Friends Free.<br/><br/>If you already have the free version, switching to the paid version is easy as pie. Your existing account, games and friends will carry over automatically.<br/><br/>_________________________________________<br/><br/><br/>If you like Hanging With Friends, try Words With Friends and Chess With Friends!<br/><br/>Already a fan of the game?<br/>Like us on Facebook: http://www.facebook.com/HangingWithFriends<br/>Follow us on Twitter: http://twitter.com/HangingWFriends<br/><br/>Use of this application requires a Facebook or Games With Friends account.<br/><br/>Use of this application is governed by the Zynga Terms of Service. Collection and use of personal data are subject to Zynga's Privacy Policy. Both policies are available in the Application License Agreement below as well as at www.zynga.com. Social Networking Service terms may also apply.</p>"
p4
sS'appid'
p5
S'440784937'
p6
s.