(dp0
S'title'
p1
VMy Town 2
p2
sS'description'
p3
S'<p>It\xe2\x80\x99s YOUR town, YOUR choice!  Whether you want the hottest hotel or a hole-in-the-wall restaurant, a local business or a landmark half-way across the world, My Town 2 brings it all to your device.<br/><br/>Discover the best location based game of all time and why the New York Times exclaimed \xe2\x80\x9cMy Town turns the real world into Monopoly.\xe2\x80\x9d<br/><br/>My Town 2 has lots of cool, free features.<br/>\xe2\x9c\x93 Build an awesome town filled with your favorite places from the real world<br/>\xe2\x9c\x93 Popularity matters! Earn cool bonuses by building &amp; checking into everyone\xe2\x80\x99s favorite places<br/>\xe2\x9c\x93 Make your town unique \xe2\x80\x93 customize the look of your businesses and add awesome decorative items<br/>\xe2\x9c\x93 Earn rewards for completing quests and mini-missions<br/>\xe2\x9c\x93 Fun and quirky content added frequently<br/><br/>No other game allows you to express yourself quite the same way.  Create the city of your dreams filled with that awesome restaurant, clothing store, or cafe that captured our imagination.<br/><br/>We hope you enjoy My Town 2, brought to you by the people behind No Zombies Allowed, My Town Animals, and Early Bird. For any questions, problems or suggestions please email MT2support@booyah.com<br/><br/>Life is a story. Build yours.</p>'
p4
sS'appid'
p5
S'442345455'
p6
s.