(dp0
S'title'
p1
VRacing Penguin, Flying Free - by Top Free Games
p2
sS'description'
p3
S'<p>Racing Penguin (or Flying Penguin) is a physics based slide and fly game!<br/><br/>Slide down the mountains of Antarctica and flap your wings to fly.<br/><br/>Go as fast as you can to escape from the polar bear.<br/><br/>5 addicting worlds, 40 racing levels.<br/><br/>Clear levels to earn stars - the faster you go, the more stars you get.<br/><br/>Use your stars to unlock new worlds!<br/><br/>Get it while it is FREE!</p>'
p4
sS'appid'
p5
S'443637419'
p6
s.