(dp0
S'title'
p1
VTap Fish 2
p2
sS'description'
p3
S'<p>Welcome to Tap Fish 2, the next generation of Tap Fish the #1 aquarium / fish app in the Appstore!  You are taps away from owning multiple aquariums, where you can decide what fish to grow, sell, and breed!<br/><br/>PLEASE NOTE: Tap Fish 2 is completely free to play, but some game items can also be purchased for real money.  If you don\'t want to use this feature, please disable in-app purchases.<br/><br/><br/>Raise beautiful baby Clown Fish, feed them to see them grow, and decorate your tanks with exotic tropical plants and sea reefs.  Easy and simple as 1-2-3.  (Don\xe2\x80\x99t forget to clean your tanks!)<br/><br/>But what do you get when you breed?<br/><br/>Blowfish + Clown Fish = ?<br/><br/>Piranha + Yellow Longnose = ?<br/><br/>Leafy Sea Dragon + Longfin Bannerfish = ?<br/><br/><br/>FEATURES:<br/><br/>- Hundreds of exotic marine life including killer whales, sharks and sting rays<br/><br/>- Buy, feed, love, sell and revive your fish to gain experience<br/><br/>- Breed your fish to your heart content and for extra coins<br/> <br/>- Level up to 80 tanks and 80 levels<br/><br/>- Dozens of backgrounds including Atlantis and Stonehenge FREE!<br/><br/>- Hundreds of decorations and plants: sea reefs, caves, mermaids, sunken ship and castles!<br/><br/>- Visit, clean and feed friends\' tanks and level up to become "featured" neighbor tanks</p>'
p4
sS'appid'
p5
S'443891725'
p6
s.