(dp0
S'title'
p1
VNinja Fishing
p2
sS'description'
p3
S'<p>Sharpen your swords and swing your rods, it\'s time to fish...the NINJA way! <br/><br/>Join over 9 MILLION Ninja Fishing players - get this Top 10 Paid Game for *FREE*!<br/><br/>\xe2\x98\x85 "A perfect example of what I love about mobile games." - IGN<br/>\xe2\x98\x85 "Higher than Angry Birds! An instantly addictive game." - WIRED<br/>\xe2\x98\x85 "It\xe2\x80\x99s insanely-addicting." - Gamepro<br/>\xe2\x98\x85 "Takes that [Fruit Ninja] concept and then profoundly expands on it." - Gamezebo<br/><br/>Otoro, a fitness challenged ninja, might not be the best fighter, but he sure has mad skills when it comes to fishing!<br/><br/>Cast your hook as deep as possible into the ocean, then use the tilt controls to reel back as many fish as you can. Finally, use the katana-powered touch technology to slice the scaly fish right out of the sky for maximum gold profit (watch out for the Dynamites).<br/><br/><br/>\xe2\x98\x85 NINJA FISHING IS A SMASH HIT!<br/>-------------------------------------------<br/>#7 Paid Games in the US, UK and 9 other countries.<br/>#1 Paid Adventure and Family Games in the US, UK and 10 countries.<br/>Over 9 MILLION hooked players worldwide!<br/><br/><br/>\xe2\x98\x85 LOADED WITH FEATURES<br/>-------------------------------------------<br/>\xe2\x9c\x94 Super addictive FISH &amp; SLASH gameplay!<br/>\xe2\x9c\x94 Master both tilt &amp; touch controls to perfection.<br/>\xe2\x9c\x94 Over 60 fishes to collect.<br/>\xe2\x9c\x94 Earn GOLD to buy lots of super upgrades like katanas, boats, fishing guides &amp; more.<br/>\xe2\x9c\x94 Find TREASURE CHESTS with goodies.<br/>\xe2\x9c\x94 Super-sharp HD graphics.<br/>\xe2\x9c\x94 UNIVERSAL - play on iPhone &amp; iPad!<br/>\xe2\x9c\x94 Achievements &amp; Leaderboards.<br/>\xe2\x9c\x94 Facebook &amp; Twitter integrations.<br/>\xe2\x9c\x94 Free 100 Gold for playing everyday!<br/><br/>We\'re working on more free updates, please support us and tell your friends about Ninja Fishing! <br/><br/>Like us on Facebook to get a sneak peek of the next updates: http://goo.gl/cxE7t<br/><br/>Follow us on Twitter: http://twitter.com/Gamenauts<br/><br/><br/>---------------------------------------<br/><br/>\xe2\x98\x85 IMPORTANT! Please update Ninja Fishing to v.1.4.1 before updating your device to iOS 6.<br/><br/>There was a bug with iOS 6 that might affect your game save data in previous versions of the game. Your game will now be saved properly in the latest 1.4.1 version.</p>'
p4
sS'appid'
p5
S'445283501'
p6
s.