(dp0
S'title'
p1
VGoogle+
p2
sS'description'
p3
S'<p>Stay connected and share life as it happens with Google+ for iPhone and iPad.  Join a Hangout, post a photo, or see what friends are sharing while you\xe2\x80\x99re on the go.<br/><br/>Features:<br/>\xe2\x9c\x93 New iPad-optimized layout brings your stream to life <br/>\xe2\x9c\x93 Share photos directly to Events for all your friends to enjoy<br/>\xe2\x9c\x93 Video chat with up to 9 friends with mobile Hangouts<br/>\xe2\x9c\x93 Turn on Instant Upload to sync photos from your phone to a private Google+ album<br/>\xe2\x9c\x93 Chat with a friend or all your friends at once with Messenger from your phone<br/>\xe2\x9c\x93 Check out the What\xe2\x80\x99s Hot stream to see popular posts<br/>\xe2\x9c\x93 View the Nearby stream to see what people near your location are saying<br/>\xe2\x9c\x93 See vibrant, high-resolution images on Retina display devices</p>'
p4
sS'appid'
p5
S'447119634'
p6
s.