(dp0
S'title'
p1
VSix-Guns
p2
sS'description'
p3
S'<p>For the first time ever on iPhone and iPad, you can explore a truly enormous and open frontier in a Wild West full of mystery, bandits and more\xe2\x80\xa6unnatural enemies. <br/>Play it for free: Make your enemies pay!<br/><br/>Buck Crosshaw never shot a man who didn\xe2\x80\x99t deserve it, but now he\xe2\x80\x99s an outlaw who had to fake his own death and escape to Arizona. But in escaping one evil, Buck is about to face another, for an ancient and wicked force stirs in the hills of this mysterious region. <br/><br/>A WILD FRONTIER<br/>Freely explore an open world set in Arizona and Oregon full of events, mystery and challenges for you to discover as you become completely immersed in the story and the action. But don\xe2\x80\x99t be fooled by this land\xe2\x80\x99s beauty - outlaws, vampires &amp; many other unnatural foes lurk in every shadow.<br/><br/>ACCEPT THE CHALLENGE<br/>Take on 40 missions with a great variety of tasks for you to overcome. You\xe2\x80\x99ll race horses, take out robbers, fend off waves of enemies and more along the way!<br/><br/>SADDLE UP<br/>In this kill-or-be-killed land, you\xe2\x80\x99ll need to unlock all 8 different horses, 19 weapons and a wide selection of clothes, ammo and other items to help you on your journey.<br/><br/>PLAY FOR FREE<br/>It costs you nothing to download and play the game to the end!<br/><br/>Visit our homepage at www.gameloft.com.<br/>Follow us on Twitter at http://twitter.com/gameloft or like us on Facebook at http://facebook.com/gameloft to get more info about all our upcoming titles.<br/>Check out our videos and game trailers on www.youtube.com/gameloft. <br/>Discover our blog at http://blog.gameloft.com/ for the inside scoop on everything Gameloft.</p>'
p4
sS'appid'
p5
S'447331712'
p6
s.