(dp0
S'title'
p1
VSlotomania
p2
sS'description'
p3
S'<p>Slotomania is a Video Slots experience like no other, it brings a Vegas experience to your fingertips.<br/>Introduced to the world of social gaming and was immediately embraced by game lovers all over the world.<br/>Its unique blend of top tier graphics and high quality sound effects combine to create a top notch-gaming experience. <br/><br/>Slotomania\xe2\x80\x99s robust selection of machines and exciting bonus games are frequently updated, ensuring that players\xe2\x80\x99 experience never subsides. <br/><br/>The games are simple to use and understand, making them accessible to everyone. You simply select a game of your choice, choose a bet and number of pay-lines and start spinning. <br/><br/>That\xe2\x80\x99s not all\xe2\x80\xa6<br/>Unique bonus mini-games\xe2\x80\xa6 <br/>Sharing the luck; sending friends coins and free spins. <br/><br/>What are you waiting for... join the Slotomania<br/><br/>This product is intended for use by those 21 or older for amusement purposes only.</p>'
p4
sS'appid'
p5
S'447553564'
p6
s.