(dp0
S'title'
p1
VInfinity Blade II
p2
sS'description'
p3
S'<p>**2011 IGN "Mobile Game of the Year"**<br/>**2012 AIAS "Mobile Game of the Year"**<br/>**Winner of the IMGA "Excellence in Gameplay" and "Grand Prix" Awards**<br/>**Entertainment Weekly\'s "Top 10 Video Games of 2011"**<br/>**15 Perfect Scores and more than 20 Game of the Year Awards**<br/><br/>The award-winning Infinity Blade story continues!<br/><br/>IGN - 10 out of 10 - Editor\'s Choice<br/>TOUCH GEN - 5 out of 5 - Editor\'s Choice<br/>TOUCH ARCADE - 5 out of 5<br/>USA TODAY - 4 out of 4 <br/>G4TV.COM - 5 out of 5<br/>APPOLICIOUS - 5 out of 5<br/>MODOJO - 5 out of 5<br/>SLIDE TO PLAY - 4 out of 4<br/>GAMESPOT - 9 out of 10 - Editor\'s Choice<br/><br/>IGN - "Infinity Blade 2 is a must own" <br/>Touch Arcade - "An iOS Masterpiece"<br/>INTO MOBILE - "The King of iOS Gaming Continues its Reign."<br/>IGN - "The Perfect Sequel" <br/>USA TODAY - "A masterful mobile epic!"<br/><br/>The God King has been defeated, an unlikely hero has emerged and now you must discover the truth behind the secrets of the Infinity Blade. The continuing journey of young Siris unfolds as you delve deeper into the world of the Deathless tyrants and their legion of Titans.  Can you unlock all the mysteries and successfully wield the power of the Infinity Blade in this timeless swordplay adventure of champions and villains?<br/><br/>A Robust &amp; Dynamic 3D World: <br/>Explore beautiful and immersive environments that dynamically change over time during your travels and venture to exotic locations such as the Asian themed Saydhi\xe2\x80\x99s Estate or the medieval inspired Vault of Tears featuring multiple paths to explore. <br/><br/>Featuring 3 All-New Styles of Combat: <br/>Now you can choose from multiple classes of weapons, armor and spells, each with specialized capabilities such as Dual Wielding, Two-Handed and the standard Weapon &amp; Shield class. Learn each discipline by using Infinity Blade II\xe2\x80\x99s intuitive pick-up and play game play style that is easy to use, yet difficult to master! <br/><br/>Infinity Blade\xe2\x80\x99s Trademark Character Customization Evolved: <br/>Create and forge even more powerful weapons with mystical objects you discover and collect along your journey, expanding your overall arsenal with all-new elemental powers &amp; capabilities! <br/><br/>Massively Social Global Challenges:<br/>Jump into ClashMob, an innovative new gaming experience that allows you to earn rewards by participating in massively social, asynchronous global challenges. Post your progress to Facebook and Twitter feeds and recruit friends to your own \xe2\x80\x9cMob\xe2\x80\x9d to earn special perks, unlock new achievements, and gain rewards! Note: The ClashMob feature is free and optional and will require you to log-in via your Facebook account. <br/><br/>The Secrets of Your Past Revealed: <br/>Delve deeper into the fantastical story of Infinity Blade as your journey leads you to the realm of the mysterious Deathless Saydhi and discover the truth about the Worker of Secrets and the powers he holds. <br/><br/>The Latest in iOS features Powered by Unreal Technology: <br/>The definitive visual experience in mobile gaming, complete with all-new iCloud support and HDMI output. <br/><br/>Universal App: <br/>Play Infinity Blade on iPhone 3GS, iPhone 4, iPhone 4S, iPad, iPad 2, the New iPad, iPod Touch 3 (16 GB and above), or iPod Touch 4 for a single low price. <br/><br/>Notes: <br/>- If you are experiencing technical issues with the App, please visit the Infinity Blade II support page at: http://infinitybladegame.com/faq<br/>- It is highly recommended that you upgrade your device to the latest iOS version.<br/>- Parents: you can turn off In-App purchasing in the iOS settings.<br/>- The ClashMob social networking feature is free and optional, and will require you to log-in via your Facebook account.</p>'
p4
sS'appid'
p5
S'447689011'
p6
s.