(dp0
S'title'
p1
VWhere's My Water?
p2
sS'description'
p3
S"<p>WHERE'S MY WATER IS THE HIT DISNEY APP EVERYONE IS PLAYING! NOW WITH OVER 400 LEVELS!<br/><br/>\xe2\x80\x9cGame of the Year\xe2\x80\x9d \xe2\x80\x94 POCKET GAMER<br/>\xe2\x80\x9cGame of the Year\xe2\x80\x9d \xe2\x80\x94 PHONEARENA.COM<br/>\xe2\x80\x9cGame of the Year\xe2\x80\x9d \xe2\x80\x94 APPLE 'N APPS <br/>\xe2\x80\x9c92 Metascore\xe2\x80\x9d \xe2\x80\x94 METACRITIC.COM <br/>\xe2\x80\x9cEditor\xe2\x80\x99s Choice Award\xe2\x80\x9d \xe2\x80\x94 IGN <br/>\xe2\x80\x9cGame of the Month\xe2\x80\x9d \xe2\x80\x94 SLIDE TO PLAY <br/>\xe2\x80\x9cOne of those rare gems that manages to get everything right.\xe2\x80\x9d \xe2\x80\x94 GAMEZEBO <br/>\xe2\x80\x9cThis is the perfect game to play on the go.\xe2\x80\x9d \xe2\x80\x94 KIDZWORLD<br/><br/>Where\xe2\x80\x99s My Water? is a challenging physics-based puzzler complete with vibrant graphics, intuitive controls, and a sensational soundtrack. To be successful, you need to be clever and keep an eye out for algae, toxic ooze, triggers, and traps.<br/><br/>Now with iCloud support to synchronize your hard earned progress across multiple iOS 5 devices. One game, multiple devices!<br/>3 STORIES \xe2\x80\x94 3 SEPARATE GAMES \xe2\x80\x94 MORE THAN 400 TOTAL PUZZLES \xe2\x80\x94 FREE UPDATES!<br/><br/>SWAMPY\xe2\x80\x99S STORY<br/><br/>Swampy the Alligator lives in the sewers under the city. He is a little different from the other alligators \xe2\x80\x94 he\xe2\x80\x99s curious, friendly, and loves taking a nice long shower after a hard day at work. The other alligators have damaged his plumbing and disrupted the water flow. Help Swampy by guiding water to his shower! In Swampy\xe2\x80\x99s Story, play ten themed chapters over 200 levels. Collect Swampy\xe2\x80\x99s ducks and shower items to unlock new puzzles and bonus levels.<br/> <br/>CRANKY\xe2\x80\x99S STORY <br/><br/>Cranky is the toughest alligator around and he has worked up an appetite from sabotaging Swampy\xe2\x80\x99s water supply. He eats anything, especially all the rotting and disgusting junk found in the dumps and sewers. Cranky will not eat vegetables however, and now his food is covered with vegetable-like algae. Use the dirty purple water to clean off Cranky\xe2\x80\x99s plate so he can eat! Cranky is tough and so are his puzzles! Try five levels for free and test your skills with more than 80 levels for an additional in-app purchase.<br/><br/>LOST LEVELS<br/><br/>This collection of levels from Swampy\xe2\x80\x99s other adventures is always growing, and always FREE!<br/><br/>MYSTERY DUCK LEVELS<br/><br/>These levels may look familiar, but in the Mystery Duck Story you have to collect all new types of ducks including:<br/><br/>\xe2\x80\xa2MegaDuck \xe2\x80\x93 The biggest duck of all, he needs more water than ever to collect!<br/>\xe2\x80\xa2Ducklings \xe2\x80\x93 Sure they look cute, but they are everywhere!<br/>\xe2\x80\xa2Mystery Duck \xe2\x80\x93 He moves!  Timing is everything to catch this fancy teleporting duck!<br/><br/>New story, new comics, new look and new ducks \xe2\x80\x93 a new way to play for a small additional price!  Try five levels for FREE!<br/><br/>AMAZING LIFELIKE FLUID PHYSICS<br/><br/>Go with the flow! Swipe, slosh, and splash to guide fresh water, dirty water, and ooze through increasingly challenging scenarios. <br/><br/>COLLECTIBLES, CHALLENGES, AND BONUS LEVELS <br/><br/>Collect Swampy\xe2\x80\x99s shower items and complete Cranky\xe2\x80\x99s Challenge to unlock bonus levels. \xe2\x80\x9cTri-Duck\xe2\x80\x9d each chapter and tap around for secret levels and even more surprises! Visit www.facebook.com/WheresMyWater for more hints, tips and secrets. <br/><br/>Every drop counts in Where\xe2\x80\x99s My Water? \xe2\x80\x94 A refreshing puzzler filled with good clean gaming fun!<br/></p>"
p4
sS'appid'
p5
S'449735650'
p6
s.