(dp0
S'title'
p1
VTiny Village
p2
sS'description'
p3
S'<p>Build a pre-historic village where you harvest resources, build homes and construct cool shops. Assign your villagers to work different jobs and use all 7 resources to craft items like tools, clothes, candy and more. Upgrade the Magic Rock at the center of your town to unlock premium boosts, new buildings and decorations!<br/><br/>Please review our app FIVE STARS and send us feedback about the game! <br/><br/>AWESOME FUN AND FREE FEATURES!<br/>---------------------------------------------------<br/>* Play for FREE forever in this awesome city simulator!<br/>* Grow your village from a small settlement into a bustling nation!<br/>* Use the Market to trade and sell resources with other Tiny Village players. Invest in wood, rock, food and mammoth fur today -- sell lumber, stone and woven fur tomorrow!<br/>* Buy crystals to speed up production, get premium buildings, and awesome decorations for your village.<br/><br/>PLEASE NOTE: An internet connection is required to play this game!</p>'
p4
sS'appid'
p5
S'453126021'
p6
s.