(dp0
S'title'
p1
VMonster Pet Shop
p2
sS'description'
p3
S'<p>PLEASE NOTE: Monster Pet Shop is free to play, but charges real money for additional in-app content. You may lock out the ability to purchase in-app content by adjusting your device\xe2\x80\x99s settings. <br/>------------------------ <br/><br/>Run your own Monster Pet Shop that grows, exhibits, and sells fantastic magical creatures. Play with, care and feed your creatures to maximize happiness. Happy creatures award more money when you find them good homes. Customize your Monster Pet Shop with three different habitats \xe2\x80\x93 Dirt, Grass and Water, and unlock ever more wonderful creatures.<br/>------------------------ <br/><br/>- Players can collect upwards of 25 different monster types and over 100 unique looking monsters.<br/>-  Multiple classes and habitats including dirt, water and grass monsters<br/>-  Care for your monster pets by petting them, cleaning their homes and feeding them<br/>-  Grow and breed unique monsters for show<br/>-  Play online with your friends to share eggs and grow your collection<br/>------------------------ <br/><br/>ADDITIONAL NOTES: <br/><br/>iOS will keep you logged on for 15 minutes after an initial in-app purchase. Additional purchases won\xe2\x80\x99t require a re-entry of the password during this 15 minute interval. This is a function of the iOS software and not within our control. <br/>------------------------ <br/><br/>Follow us on Twitter: www.twitter.com/BeelineGames <br/>Follow us on Facebook: www.facebook.com/BeelineGames <br/>Follow us on Youtube: www.youtube.com/BeelineGames</p>'
p4
sS'appid'
p5
S'453836158'
p6
s.