(dp0
S'title'
p1
VFacebook Messenger
p2
sS'description'
p3
S"<p>Reach friends wherever they are with Facebook Messenger.<br/>-Message a friend or start a group conversation<br/>-Reach friends on mobile or web<br/>-Get push notifications<br/>-Know who's seen your messages<br/>-Include your location and share photos</p>"
p4
sS'appid'
p5
S'454638411'
p6
s.