(dp0
S'title'
p1
V"Free Music Download" - Downloader and Player
p2
sS'description'
p3
S'<p>Fully featured free music downloader!! <br/>Download free and legal music directly to your iPhone and iPod!!<br/>Vast number of free music available!!!<br/><br/>Web browser<br/>- Bookmark manager<br/>- Single tap downloads<br/>- Multi  tab browser<br/><br/>Download Manager<br/>- Fast Downloading<br/>- Multiple downloading at one time<br/>- Pause, resume, or cancel downloading<br/><br/>File manager<br/>- Songs, Albums, Genre, Artists tab<br/>- Move, rename or delete files and folders<br/><br/>Playlist<br/>- Create, edit, remove<br/>- Smart Playlists - My Top Rated, Top 25 Most Played, Recently Played, Recently Added<br/><br/>Audio player<br/>- Cover flow <br/>- Fine scrubbing<br/>- Sleep timer<br/><br/>10 bands graphic EQ &amp; spectrum analyzer<br/>- 22 standard presets like iPod\xe2\x80\x99s <br/>- Customized EQ settings &amp; presets <br/>- EQ presets for specific songs<br/>- Spectrum analyzer on player and cover flow<br/><br/>Tag Editor<br/>- Lyrics, Album Artwork, Album Name, Genre, Title, Artist, Album Artist, Track, Year<br/><br/>The free version can download up to 15 songs. Please upgrade to download more songs.</p>'
p4
sS'appid'
p5
S'454975562'
p6
s.