(dp0
S'title'
p1
VTiny Zoo Friends
p2
sS'description'
p3
S"<p>Build the BEST zoo and raise ADORABLE animals in Tiny Zoo Friends! Come back everyday to discover EXCITING new animal friends! <br/><br/>Introducing...CUBBIES! Tiny Zoo Friends' biggest LITTLEST new feature ever!<br/>-Adopt and raise LOVABLE Cubbies from giggling INFANTS to stumbling TODDLERS!<br/>-Watch your Cubbies walk FREELY around the BRAND NEW Cubby Patch!<br/>-Every species has a variety of COLORS! Adopt them all for SPECIAL prizes!<br/><br/>Tiny Zoo Friends Features: <br/>-HUNDREDS of unique animals! <br/>-BREED your animals to complete FAMILIES! <br/>-CROSSBREED animals in the Lab to discover NEW species! <br/>-Unlock RARE animals by finishing COLLECTIONS! <br/>-Complete GOALS to earn REWARDS! <br/>-DECORATE your Tiny Zoo with TONS of fun items! <br/>-Play with your FRIENDS from Facebook and make new ones through Tiny Social! <br/><br/><br/>Note: Tiny Zoo Friends requires an internet connection to play. iPod Touch users will need a Wifi connection. <br/><br/>===================================== <br/><br/>Rate Tiny Zoo Friends FIVE STARS on the App Store now! <br/><br/>===================================== <br/><br/>http://tinyco.com/websitetermsofuse.htm <br/><br/>http://tinyco.com/privacypolicy.htm</p>"
p4
sS'appid'
p5
S'456082760'
p6
s.