(dp0
S'title'
p1
VJetpack Joyride
p2
sS'description'
p3
S'<p>You\'re going for a ride - from the creators of FRUIT NINJA! Now updated to support the beautiful Retina display for the new iPad!<br/><br/>** Winner ** <br/>- Pocket Gamer - Best Action/Arcade Game 2012<br/>- Pocket Gamer - iPhone/iPod Touch Game of the Year 2012<br/>- Pocket Gamer - Overall Game of the Year 2012 <br/>- Gamasutra Mobile Game of 2011 <br/>- TUAW Best iPhone Game of 2011 <br/>- UGO iOS Game of the Year <br/>- Game Revolution Best Mobile Game 2011 <br/>- App Store Rewind, iPhone Game of the Year Runner-up!<br/>****<br/><br/>Suit up with a selection of the coolest jetpacks ever made and take to the skies as Barry Steakfries, the lovable hero on a one-way trip to adventure! From the creators of the worldwide phenomenon Fruit Ninja comes the action-packed Jetpack Joyride, Halfbrick\'s most anticipated iPhone game ever!<br/><br/>****<br/><br/>"This is seriously my favorite iPhone game right now. I don\'t care if you have to go donate blood to afford it, do what you have to do." -- Touch Arcade<br/><br/>"Likely the best dollar you\'ll spend this summer." -- MTV<br/><br/>"Jetpack Joyride is, quite simply, an amazing game." -- IntoMobile<br/><br/>"Like all the best mobile games, Jetpack Joyride is criminally simple." -- Kotaku<br/><br/>"We are already blown away. Halfbrick looks like they have another hit on their hands." -- AppAdvice<br/><br/>\xe2\x80\x9cA miracle, by all accounts.\xe2\x80\x9d - PocketGamer<br/><br/>****<br/><br/>Join Barry as he breaks in to a secret laboratory to commandeer the experimental jetpacks from the clutches of science evildoers. After lift-off, simply touch the screen to ascend and release to descend, raining bullets, bubbles, rainbows and lasers downwards as you fly towards higher and higher scores!<br/><br/>You\'ll start off with the legendary Machine Gun Jetpack to scatter the evil scientists, but throughout each game you\'ll collect coins and complete missions to earn cash and buy new gear in The Stash! Pick your favorite jetpack, snazzy outfit and stock up on items then get back out there for more action!<br/><br/>Keen reflexes are your best weapon to avoid the obstacles in your path. These include lasers, electricity fields and even guided missiles, but thankfully this is a top secret lab - there will be even more goodies to pick up and help Barry along the way. Stay out of harm and you\'ll reach massive scores, unlock Achievements and beat your friends on the online leaderboards!<br/><br/>Get a boost of speed and power using the Lil\' Stomper, Profit Bird and Crazy Freaking Teleporter, just a selection of the vehicles pickups available - all playable with one touch controls. You can even splash out and upgrade the vehicles with coin magnets or shiny gold plating for that bonus style factor!<br/><br/>Stay alive, get funky and lose yourself in Jetpack Joyride. There\'s so much to see and do, all the time in the world and more than enough jetpacks! As always, Barry Steakfries will provide!</p>'
p4
sS'appid'
p5
S'457446957'
p6
s.