(dp0
S'title'
p1
V101-in-1 Games !
p2
sS'description'
p3
S'<p>This game is a collection of 131 games in 1 app! <br/><br/>Top #5 app on iTunes AppStore in United States, Australia, Germany, France, Italy, Spain, UK and many other countries!!! <br/><br/>\xe2\x98\x85\xe2\x98\x85\xe2\x98\x85\xe2\x98\x85\xe2\x98\x85 131 games for all tastes in one pack! \xe2\x98\x85\xe2\x98\x85\xe2\x98\x85\xe2\x98\x85\xe2\x98\x85<br/><br/>\xe2\x98\x85\xe2\x98\x85\xe2\x98\x85\xe2\x98\x85\xe2\x98\x85 4 new games in this update \xe2\x98\x85\xe2\x98\x85\xe2\x98\x85\xe2\x98\x85\xe2\x98\x85<br/><br/>Puzzle games, fast paced arcade action, racing, sports, cooking, shooting, sudoku and many many more!<br/>This collection is enough to satisfy all your gaming needs! <br/><br/>Supported Languages: English, French, German, Italian, Spanish, Russian, Chinese, Japanese.<br/><br/>\xe2\x98\x85 Subscribe to www.youtube.com/Nordcurrent for new videos and trailers! <br/>\xe2\x98\x85 Join us at www.facebook.com/Nordcurrent to participate in our competitions, win prizes and have fun!</p>'
p4
sS'appid'
p5
S'458068537'
p6
s.