(dp0
S'title'
p1
VThe Oregon Trail: American Settler
p2
sS'description'
p3
S'<p>Experience a brand new adventure of The Oregon Trail!<br/>You\xe2\x80\x99ve conquered the trail, now it\xe2\x80\x99s time to tame the frontier! In this continuation of The Oregon Trail story, you and your family can finally settle down and build a new home.<br/><br/>ALL YOU LOVED AND MORE<br/>A new adventure gathering features you loved from the original \xe2\x80\x9cThe Oregon Trail\xe2\x80\x9d plus great new ones from this brand new game!<br/><br/>A VILLAGE LIKE NO OTHER<br/>Create your own personalized frontier village by adding buildings, livestock, crops and taking care of your people\xe2\x80\x99s happiness.<br/><br/>HISTORIC ENCOUNTERS<br/>Meet up with some of the most important figures in history, or have a quick chat with your townsfolk to uncover quests and some fascinating true bits of history.<br/><br/>SURPRISES ABOUND<br/>The west truly is a wild and dangerous place, and you never know whether a stampede of buffalo, a hurricane or something worse might strike! Make vital decisions to protect your village from anything!<br/><br/>MINI-GAMES, BIG FUN<br/>Play the fun Hunting or Fishing mini-games to gather resources for your people and stockpile enough supplies to get you through even the toughest of times.<br/><br/>SHARE THE ADVENTURE<br/>Make new friends or meet-up with old ones by visiting your neighboring villages. Exchange gifts to deepen the bonds of friendship and help each other make the most amazing villages possible.</p>'
p4
sS'appid'
p5
S'460062770'
p6
s.