(dp0
S'title'
p1
VRoad Warrior Racing Multiplayer - by Top Free Apps and Games
p2
sS'description'
p3
S'<p>Road Warrior: Multiplayer Racing was a 2012 Unity Awards Finalist!<br/>Super addicting combat racing experience! Single and online multiplayer modes with 7 million other warriors!<br/><br/>News, hints and exclusive promotions: facebook.com/RoadWarriorGame &amp; roadwarriorgame.com<br/><br/>PocketGamer: "Mobjoy flips the genre, adding tricks for its free 2D iPhone vehicle combat game Road Warrior".<br/>GameZebo: "[Road Warrior] is a 2D, post-apocalyptic version of MarioKart".<br/>AppSpy: "Start collecting better vehicles and powerful weaponry, it\'s a blast to rip cars to shreds while earning piles of cash"<br/><br/>PLEASE NOTE! Road Warrior is completely free to play, but in-game items can also be purchased for real money. If you don\'t want to use or let someone else use this feature, please disable in-app purchases.<br/><br/>Road Warrior is a super addicting combat racing game! <br/><br/>Race against opponents and destroy them with your guns. Accumulate victories to be able to race against the bosses. Beat them and you will get their cars!<br/> <br/>+ Execute perfect flips to gain coins and nitro boosts.<br/>+ Multiple car options from sedans to massive trucks!<br/>+ Explore and discover multiple tracks. There are many paths within a single track. There\'s always a best strategy for each car!<br/>+ Realistic and impressive graphics!</p>'
p4
sS'appid'
p5
S'461481850'
p6
s.