(dp0
S'title'
p1
Vlunacraft
p2
sS'description'
p3
S'<p>\xe2\x98\x86 10,000 reviews - 4.5 star average!  Join the Lunacraft revolution!  Unlimited exploration...endless creativity...for free! \xe2\x98\x86<br/><br/>Lunacraft welcomes you to a future where you can explore and colonize a new alien moon every time you play.<br/><br/>\xe2\x98\x86 Meet strange new aliens, some dangerous, some helpful!<br/>\xe2\x98\x86 Unlimited exploration in every direction!<br/>\xe2\x98\x86 Establish a base of your own design with dozens of materials!<br/>\xe2\x98\x86 Harvest alien light trees, take shelter under soaring arches!<br/>\xe2\x98\x86 Decipher clues left by enemy astronauts to create exotic technology!<br/>\xe2\x98\x86 Free, and you can play the entire game!  You get it all!<br/>\xe2\x98\x86 Customize your moon, choosing how rugged and exotic the terrain will be.  <br/>\xe2\x98\x86 Unlock the in-game Camera to take snapshots of your discoveries and creations!<br/><br/>Discover your own stories and build your own fantasies in mooncraft!</p>'
p4
sS'appid'
p5
S'463488969'
p6
s.