(dp0
S'title'
p1
VHardest Game Ever - 0.02s
p2
sS'description'
p3
S'<p>Ranked #1 (Overall) in US, UK, Canada, Germany, Australia, ... Definitely a game you don\'t want to miss out!<br/><br/>From the developers that brought you the world #1 ranking games "Stupidness 2" &amp; "0.03 seconds", you won\'t want to miss its sequel \'Hardest Game Ever - 0.02s\' (0.02s in short)!<br/><br/>0.02s is a series of fun and exciting mini-game that measures your reaction time to the milliseconds and pixels! See how accurate you can shoot at the center of target in pixels and how sharp is your reaction to catch the eggs before they touch the floor in milliseconds! 0.02s promises to bring you hours of adrenaline drain! Complete against the world for highest possible speed and reaction!<br/><br/>Challenge your family and friends and find out who\'s got the fastest reaction on iPhone/iPod/iPad!<br/><br/>Featuring:<br/>- Multi-language Instructions Supported! (English, French, German, Italian, Japanese, Russian)<br/>- 8 Stages x 3 Challenging Levels<br/>- Includes OpenFeint so that you can compare your scores with your pals!<br/>- Earn additional 10 bonus levels when you get 5 stars for all stages!<br/>- Simple yet addictive gameplay!<br/>- Enhanced sound effects!<br/><br/>Read a few testimonial from our gamers for 0.03 seconds, testimonials don\'t lie:<br/><br/>Amazing! - \xe2\x98\x85\xe2\x98\x85\xe2\x98\x85\xe2\x98\x85\xe2\x98\x85<br/>by Lainie24 - 10 February 2011<br/>"This game is very fun and very addictive, i Just had to play every level right then. I would definitely recommend this game! Its also a great test game and sometimes very tricky."<br/><br/>Great fun! - \xe2\x98\x85\xe2\x98\x85\xe2\x98\x85\xe2\x98\x85\xe2\x98\x85<br/>by Nickram81 - 06 February 2011<br/>"If you don\'t have this yet then pick it up. After you master it you will laugh at your friends as they struggle with it."<br/><br/>Fun - \xe2\x98\x85\xe2\x98\x85\xe2\x98\x85\xe2\x98\x85\xe2\x98\x85<br/>by Sarah Childers - 01 February 2011<br/>"I like competitive apps like this one. Seeing how good you are and watching yourself improve is a good pass time."<br/><br/>Great fun for young and old alike. - \xe2\x98\x85\xe2\x98\x85\xe2\x98\x85\xe2\x98\x85\xe2\x98\x85<br/>by stevens321 - 03 January 2011<br/>"Played with my little nephew. Always love to find games we can play competitively and lots of fun."<br/><br/>Love it - \xe2\x98\x85\xe2\x98\x85\xe2\x98\x85\xe2\x98\x85\xe2\x98\x85<br/>by KaylaJade09 - 28 January 2011<br/>"I love this game have it on my iPhone and now the iPad. I get stuck on some levels and just have my friends beat them. Turns into a group competition. LOVE IT ! !"<br/><br/>So stupid but brill ! Nuf sed - \xe2\x98\x85\xe2\x98\x85\xe2\x98\x85\xe2\x98\x85\xe2\x98\x85<br/>by Mmmm cupcakes!! - 29 May 2011<br/>"Amazing it\'s so addictive and clever! Just finished and gonna reset best game ever and sooo clever !!!!!! Great little game <br/>0.03 Seconds is ranked top 5 in more than 30 countries! You won\'t want to miss out it\'s sequel, 0.02s! Download 0.02s now!<br/><br/>Note for gamers of Gone in 0.02s:<br/>This app is an updated version of Gone in 0.02s with a change in app name and icon.<br/><br/>**********************<br/>WARNING: This game contains some simple mini-games that looks way too easy till you try them! Not for the faint hearted!</p>'
p4
sS'appid'
p5
S'463461027'
p6
s.