(dp0
S'title'
p1
VPocket Potions
p2
sS'description'
p3
S'<p>Create a Potion Shop in a Magical World!<br/><br/>You\'ve inherited a potion shop from your Fairy Godmother. It may be small, but it is famous throughout the kingdom as the best place to find powerful potables, clever charms and evil elixirs. Play with friends and build your business from a humble corner shop into the most magical emporium in all the land!<br/><br/>REVIEWS<br/><br/>\xe2\x98\x85 "Interesting and high quality visual style." -GameZebo.com<br/>\xe2\x98\x85 "...a free and rather cute game for you iOS users!" -ReviewTheTech.com<br/>\xe2\x98\x85 "...they\xe2\x80\x99ve delivered another great Simulation game..." - AppsMeNow.com<br/>\xe2\x98\x85 "Yes it\xe2\x80\x99s a cute game..." -MobilityDigest.com<br/>\xe2\x98\x85 "In Pocket Potions, I was provided the unique opportunity to create a successful potion shop." -PocketNext.com<br/><br/>FEATURES<br/><br/>\xe2\x98\x85 Levitate, charm and transform your customers with dozens of amazing potions effects.<br/>\xe2\x98\x85 Farm magical plants and harvest their ingredients to brew your potions.<br/>\xe2\x98\x85 Raise adorable dragons, unicorns and other mythical animals.<br/>\xe2\x98\x85 Customize your shop to improve your reputation and attract more customers.<br/>\xe2\x98\x85 Meet wizards, adventurers and fairy tale tourists and help them with their problems.<br/>\xe2\x98\x85 Beautiful, colorful visuals and amazing animations.<br/>\xe2\x98\x85 Support friends by using Game Center to visit other shops and trade gifts.<br/>\xe2\x98\x85 Works on the iPod Touch, iPad, and iPhones.<br/><br/>INTERNET CONNECTION SUGGESTED, BUT NOT REQUIRED<br/><br/>Check us out on twitter: @breaktimestudio<br/>Thanks for playing!<br/><br/>PLEASE NOTE! Pocket Potions is completely free to play, but it contains items which can be purchased for real money. If you do not wish to use this feature, please disable in-app purchases.</p>'
p4
sS'appid'
p5
S'464121906'
p6
s.