(dp0
S'title'
p1
VBlood & Glory
p2
sS'description'
p3
S'<p>NOW WITH THE NEW DECAPITATOR WEAPONS!!! PLUS EARN MORE REWARDS FOR HAVING MORE GAME CENTER FRIENDS!!<br/><br/>THERE WILL BE BLOOD\xe2\x80\xa6<br/>Some have come to witness strength, others to witness courage, but all have come for BLOOD &amp; GLORY<br/><br/>Battle in the arena and entertain BLOOD-thirsty crowds in a fight to the death. Here, GLORY is the only option\xe2\x80\xa6<br/><br/>BLOODIEST HD VISUALS<br/>See and feel the raw violence of the fighters and the intense combat arena  <br/><br/>SWIPE &amp; SLASH GORE<br/>Take to the Arena in the bloodiest, goriest swipe and slash fighting game on app store<br/><br/>LETHAL WEAPONS &amp; ARMOR<br/>Equip an arsenal of lethal weapons and armor tailored to suit all fight styles, including blades &amp; shields, and destructive dual weapons<br/><br/>SPECIAL ATTACKS &amp; COMBOS<br/>Complete special attacks and combos for the ultimate blood-soaked victory!<br/><br/>INVICTUS VICTORY<br/>Be a real champion and earn Invictus medals by winning tournaments flawlessly. Don\xe2\x80\x99t lose and never surrender!<br/><br/>FOLLOW US<br/>facebook.com/GluMobile<br/>facebook.com/BloodGloryGame<br/>Twitter @GluMobile<br/><br/>2011 \xc2\xa9 Glu Mobile Inc.  GLU, BLOOD &amp; GLORY are the trademarks or registered trademarks of Glu Mobile Inc. in the United States and other jurisdictions.  All rights reserved.<br/><br/>Blood &amp; Glory is free to play, but you can choose to pay real money for some extra items, which will charge your iTunes account.  You can disable in-app purchasing by adjusting your device settings.</p>'
p4
sS'appid'
p5
S'466067444'
p6
s.