(dp0
S'title'
p1
VHomerun Battle 2
p2
sS'description'
p3
S'<p>\xe2\x98\x86\xe2\x98\x85Homerun Battle Series at its PEAK!\xe2\x98\x85\xe2\x98\x86<br/>\xe2\x98\x8520 Million Sluggers battling in 300 million match-ups!!\xe2\x98\x85<br/>**Go Smash your homeruns NOW!!**<br/><br/>Are you ready to hit some more home runs?<br/><br/>10 Million Sluggers Worldwide, 300 Million Online Match-Ups. <br/>NOW the Ultimate Homerun Derby Returns: Homerun Battle 2! <br/><br/>Back and better than ever, the beloved real-time worldwide slugger battle has a sequel! Prepare to play the best mobile baseball smashin\' game against sluggers worldwide. <br/><br/>\xe2\x98\x85This game supports English, \xe6\x97\xa5\xe6\x9c\xac\xe8\xaa\x9e, \xe4\xb8\xad\xe6\x96\x87 and \xed\x95\x9c\xea\xb5\xad\xec\x96\xb4  <br/><br/>_________________________________________ <br/><br/>NOTICE <br/><br/>If you are playing the game without logging into Com2uS Hub, your play data may get deleted if you delete the application. <br/><br/>Enjoy Homerun Battle after logging into Com2uS Hub to keep your play data safely even if you delete the application or change the device.<br/><br/>Owners of Homerun Battle 3D, get the \'HB STARS\' uniform for FREE by logging into your Com2uS hub. <br/><br/>_________________________________________  <br/><br/>FEATURES <br/><br/>PLAY AGAINST ALL OTHER PLAYERS in the WORLD <br/><br/>CUSTOMIZABLE CHARACTERS <br/>Gender, body structure, skin tone...customize them all! And extra stats and skills can be added with interesting styles, clothing, and bats. <br/><br/>CHOOSE A STADIUM <br/>Choose your own stadium: Eye-popping and fantastic themes with exciting grand-slams!<br/><br/>6 DIFFERENT MODES <br/>DUEL : 1-on-1 Match-up Battle <br/>SURVIVAL : Survival Match-up Item Battle <br/>MISSION : Match-up with a maximum of 4 players to Clear Missions <br/>BURNING : Never-ending throws burn through the wind, Swing Blast High <br/>ARCADE : Challenge on Achievements and New Records <br/>TRAINING : Practice and train to be the all-time Slugger <br/><br/>SOCIAL \xe2\x80\x9cPOWERING\xe2\x80\x9d NETWORKS <br/>Play socially! Enjoy community activities on Com2uS Hub, chat during gameplay and easy rival-add functions <br/><br/>UPGRADED SPEED &amp; BATTING HITS <br/><br/>_________________________________________ <br/><br/>CRITIC\'S QUOTES <br/><br/>TouchArcade: "Homerun Battle 2 has all the elements that made the original such a hit and more. It\'s fun, it\'s easy to learn and it\'d keep you occupied for a considerable amount of time." <br/><br/>GameZebo: "Batting cage-like gameplay is a lot of fun. Slick graphics." <br/><br/>iPadInsight: "This game is all about hitting homeruns, All Star Game Homerun Derby style, and it\xe2\x80\x99s barrels of fun." <br/><br/>148Apps: "...everything boils down to see ball, hit ball, watch fireworks go off.  On this level the game is very satisfying and in many cases downright addictive." <br/><br/>everythingicafe: "I have found this to be a blissfully simple and entertaining game." <br/><br/>TouchGen: "Homerun Battle 2 is a homerun derby session on steroids." <br/><br/>\xe2\x94\x80\xe2\x94\x80\xe2\x94\x80\xe2\x94\x80\xe2\x94\x80\xe2\x94\x80\xe2\x94\x80\xe2\x94\x80\xe2\x94\x80<br/>COM2US GAMES <br/>\xe2\x94\x80\xe2\x94\x80\xe2\x94\x80\xe2\x94\x80\xe2\x94\x80\xe2\x94\x80\xe2\x94\x80\xe2\x94\x80\xe2\x94\x80<br/>- Tiny Farm\xc2\xae<br/>- Derby Days<br/>- 9 Innings: 2013 Pro Baseball<br/>- Homerun Battle 2<br/>- Swing Shot<br/>- IMO: The World of Magic<br/>- Magic Tree by Com2uS<br/>- Super Action Hero<br/>- Slice it!<br/>- Tower Defense\xc2\xae<br/>- Inotia 4<br/><br/>\xe2\x94\x80\xe2\x94\x80\xe2\x94\x80\xe2\x94\x80\xe2\x94\x80\xe2\x94\x80\xe2\x94\x80\xe2\x94\x80\xe2\x94\x80<br/>ABOUT COM2US<br/>\xe2\x94\x80\xe2\x94\x80\xe2\x94\x80\xe2\x94\x80\xe2\x94\x80\xe2\x94\x80\xe2\x94\x80\xe2\x94\x80\xe2\x94\x80<br/>Follow us!<br/>twitter.com/Com2uS<br/><br/>Join Com2uS\' Fan Page<br/>facebook.com/Com2uS<br/><br/>Tips and Updates<br/>com2us.com</p>'
p4
sS'appid'
p5
S'466710109'
p6
s.