(dp0
S'title'
p1
VThe Sims\u2122 FreePlay
p2
sS'description'
p3
S'<p>LIVE FREE! From the creators of The Sims\xe2\x84\xa2 3 series of best-selling iPhone games, comes an ALL-NEW Sims experience that you can play for FREE on iPhone and iPad!<br/><br/>** It\xe2\x80\x99s time for another birthday \xe2\x80\x93 now your toddlers can grow into pre-teens! Send them off to school to earn good grades, toughen them up with Karate lessons, or make them fancy with Ballet. **<br/><br/>THE CRITICS LOVE IT!<br/><br/>\xe2\x80\x9c\xe2\x98\x85\xe2\x98\x85\xe2\x98\x85\xe2\x98\x85\xe2\x98\x85 ...The Sims FreePlay is everything you could ever want a freemium Sims game to be.\xe2\x80\x9d (Gamezebo)<br/><br/>\xe2\x80\x9c10/10 \xe2\x80\xa6one of the most addictive and highly polished games available and there\xe2\x80\x99s no excuse for anyone to not download it; especially since it is free to play (the clue\xe2\x80\x99s in the title).\xe2\x80\x9d (God is a Geek)<br/> \xe2\x80\x9c...plenty of hours of fun... at an excellent, non-existent, price.\xe2\x80\x9d (148Apps)<br/><br/>LET THE FREEPLAY BEGIN! CREATE OVER 16 CUSTOMIZED SIMS FROM HEAD TO TOE, AND\xe2\x80\xa6<br/>\xe2\x80\xa2 Design dream homes or get fully-furnished houses for your Sims <br/>\xe2\x80\xa2 Let your Sims get married, make babies, and live happily ever after<br/>\xe2\x80\xa2 Care for pets, grow gardens, even bake a cake <br/>\xe2\x80\xa2 Give your Sims careers and earn Simoleons to improve their situations <br/>\xe2\x80\xa2 Complete goals for Lifestyle Points, then spend them on hip items <br/>\xe2\x80\xa2 Live with your Sims in real-time (when it\xe2\x80\x99s day or night for you, it\xe2\x80\x99s the same for your Sims!)<br/><br/>\xe2\x80\xa6and most of all, play for FREE! <br/><br/>MORE SIM-ULATING  POSSIBILITIES<br/>Will your Sims be friends \xe2\x80\x93 or enemies? Form relationships with a slap, a high-five (or some Woohoo!). Make your town bustle with pet stores, car dealerships and supermarkets. Expand your city as you get more Sims. <br/><br/>Be free, Sims! Be free! The opportunities are limitless! <br/>________________________________________<br/>NOTES: <br/>- Play on iPhone 3GS, iPhone 4, iPhone 4S, iPad, iPad 2, iPod touch 3 (3rd generation) or iPod touch (4th generation).<br/>- This all-new experience of The Sims is designed for play on iOS devices and is not connected to our Facebook game.<br/>- You must have an Internet connection to play, so please make sure your device is connected.</p>'
p4
sS'appid'
p5
S'466965151'
p6
s.