(dp0
S'title'
p1
VIce Age Village
p2
sS'description'
p3
S"<p>The official Ice Age app is here! Scrat\xe2\x80\x99s hunt for his favorite acorn has opened a crack in the Earth\xe2\x80\x99s crust, sending the animals scurrying for safety. Manny, Ellie, Diego and Sid decide to build a new village for their displaced friends. Help them in this heroic challenge and get ready for fun and surprises along the way!<br/><br/>ENTER THE ICE AGE UNIVERSE<br/>\xe2\x80\xa2 Immerse yourself in the unique world of Ice Age and interact with all of your favorite characters as they lead you on quests and missions<br/>\xe2\x80\xa2 Play mini-games featuring Scrat, everyone\xe2\x80\x99s favorite saber-toothed squirrel<br/><br/>BUILD YOUR OWN DISTINCTIVE VILLAGE<br/>\xe2\x80\xa2 Build the most beautiful village for all the creatures of the Ice Age world<br/>\xe2\x80\xa2 Level-up to gain access to new animal species, cool buildings, unique decorations and much more<br/>\xe2\x80\xa2 Funny quests, side missions and additional daily challenges keep your village bustling with activity<br/><br/>LET YOUR FRIENDS JOIN THE FUN AND SEE WHO CAN BUILD THE BEST VILLAGE<br/>\xe2\x80\xa2 Invite your friends from Gameloft LIVE! &amp; Facebook to play<br/>\xe2\x80\xa2 Visit all of your friends\xe2\x80\x99 villages - \xe2\x80\x9cLike it,\xe2\x80\x9d take care of it and get rewarded for lending a hand<br/><br/>AND GET READY FOR MORE...<br/>\xe2\x80\xa2 Frequent updates will include new characters, buildings, quests and mini-games<br/>\xe2\x80\xa2 You might even receive exclusive sneak peeks of the new film, Ice Age: Continental Drift, in theaters this summer<br/><br/>ICE AGE: CONTINENTAL DRIFT, in theaters July 13, 2012. Scrat's nutty pursuit of the cursed acorn, which he's been after since the dawn of time, has world-changing consequences - a continental cataclysm that triggers the greatest adventure of all for Manny, Diego and Sid. In the wake of these upheavals, Sid reunites with his cantankerous Granny, and the herd encounters a ragtag menagerie of seafaring pirates determined to stop them from returning home. Check out trailers for the film within the Ice Age Village app!<br/><br/><br/>----<br/><br/>Visit our official site at http:// www.gameloft.com.<br/>Follow us on Twitter at http://twitter.com/LetsPlayGL_UK  or like us on Facebook at http://facebook.com/gameloft to get more info about all our upcoming titles.<br/>Check out our videos and game trailers on www.youtube.com/gameloft. <br/>Discover our blog at http://blog.gameloft.com/ for the inside scoop on everything Gameloft.</p>"
p4
sS'appid'
p5
S'467577200'
p6
s.