(dp0
S'title'
p1
VWhere's My Water? Free
p2
sS'description'
p3
S"<p>WHERE\xe2\x80\x99S MY WATER IS THE HIT APP THAT EVERYONE IS PLAYING. IN THIS FREE VERSION, ENJOY 20 EXCLUSIVE PUZZLES NOT FOUND IN THE FULL GAME! <br/><br/>Swampy the Alligator lives in the sewers under the city. He is a little different from the other alligators \xe2\x80\x94 he\xe2\x80\x99s curious, friendly, and loves taking a shower after a hard day at work. The other alligators have damaged his plumbing and disrupted the water flow. Help Swampy by guiding water to his shower!   Get started with 10 exclusive levels, for FREE!<br/><br/>SEE THE REST OF SWAMPY\xe2\x80\x99S STORY IN THE FULL VERSION \xe2\x80\x94 COMPLETE WITH OVER 200 LEVELS AND MORE CHARACTERS! <br/><br/>Everyone loves Where\xe2\x80\x99s My Water! <br/><br/>\xe2\x80\x9cGame of the Year 2011\xe2\x80\x9d \xe2\x80\x94 PHONEARENA.COM <br/>\xe2\x80\x9cGame of the Year 2011\xe2\x80\x9d \xe2\x80\x94 APPLE 'N APPS <br/>\xe2\x80\x9c92 Metascore\xe2\x80\x9d \xe2\x80\x94 METACRITIC.COM <br/>\xe2\x80\x9cEditor\xe2\x80\x99s Choice Award\xe2\x80\x9d \xe2\x80\x94 IGN <br/>\xe2\x80\x9cGame of the Month\xe2\x80\x9d \xe2\x80\x94 SLIDE TO PLAY <br/>\xe2\x80\x9cOne of those rare gems that manages to get everything right.\xe2\x80\x9d \xe2\x80\x94 GAMEZEBO <br/>\xe2\x80\x9cThis is the perfect game to play on the go.\xe2\x80\x9d \xe2\x80\x94 KIDZWORLD <br/><br/>Where\xe2\x80\x99s My Water? is a challenging physics-based puzzler complete with vibrant graphics, intuitive controls, and a sensational soundtrack. To be successful, you need to be clever and keep an eye out for algae, toxic ooze, triggers, and traps. <br/><br/>\xe2\x80\xa2 NOW WITH OVER 200 CHALLENGING PUZZLES! <br/>The fun is just beginning. Swampy\xe2\x80\x99s pipes are broken and it is up to you to get the water flowing again through 10 themed chapters, each with 20 challenging levels. <br/><br/>\xe2\x80\xa2 MEET SWAMPY AND INTRODUCING CRANKY! <br/>The story of Swampy unfolds as you play. Swampy\xe2\x80\x99s cute, he\xe2\x80\x99s funny, he just wants to take a shower with his beloved rubber ducky. Cranky is the toughest alligator around and he has worked up an appetite from sabotaging Swampy\xe2\x80\x99s water supply. Test your puzzle solving skills with Cranky\xe2\x80\x99s Story for an additional purchase. Humorous story moments and richly-detailed graphics bring this subterranean world to life! <br/><br/>\xe2\x80\xa2 AMAZING LIFELIKE WATER PHYSICS <br/>Go with the flow! Swipe, slosh, and splash to guide water through increasingly challenging scenarios. <br/><br/>\xe2\x80\xa2 COLLECTIBLES AND BONUS LEVELS <br/>Collect Swampy\xe2\x80\x99s shower items to unlock bonus levels. \xe2\x80\x9cTri-Duck\xe2\x80\x9d each chapter and tap around for secret levels and even more surprises! <br/><br/>Every drop counts in Where\xe2\x80\x99s My Water? \xe2\x80\x94 A refreshing new puzzler filled with good clean gaming fun!</p>"
p4
sS'appid'
p5
S'467810884'
p6
s.