(dp0
S'title'
p1
VCSR Racing
p2
sS'description'
p3
S'<p>Race your dream car in the ultimate test: a drag race along deserted city streets. CSR Racing combines stunning, high-fidelity graphics with addictive gameplay to create a new type of racing experience. <br/><br/>Upgrade your Audi R8, BMW M3 or Chevy Corvette with turbos, nitrous injection and aerodynamic tweaks to beat tougher and tougher opponents. And when you\xe2\x80\x99re ready, it\xe2\x80\x99s time to challenge the crews that rule the city. <br/><br/>STUNNING GRAPHICS <br/>Featuring a breakthrough in graphics fidelity, CSR Racing smashes the barriers between consoles and your iPhone or iPad. Full retina resolution and next-gen lighting combine to beat any 1080p console racing game on the market. <br/><br/>LICENSED CARS <br/>Officially licensed cars from Audi, BMW, Chevrolet, Ford, GM, Mini and Nissan; incl. Audi R8, Ford GT, Chevrolet Camaro, Nissan GT-R, BMW M3 and a few surprises! <br/><br/>\xe2\x9c\xa9 Now includes the Pagani Huayra hypercar!<br/><br/>THE ULTIMATE CHALLENGE <br/>R8 vs GT-R. Corvette vs M3. Your car against theirs. In a straight line. It\'s about power, skill and tactics. Hit the right revs and let that turbo work. But deploy the nitrous at the wrong time, and you\'re toast. <br/><br/>UPGRADE YOUR CAR <br/>Choose from turbos, engine stages, ECU tweaks, racing tires and much more to strategically upgrade your car to fit your driving style. But remember: no two cars are the same \xe2\x80\x93 don\'t overload a RWD on skinny tires with power it can\'t handle. <br/><br/>CUSTOMIZE YOUR RIDE <br/>Make a statement with custom license plates, custom paints and original custom decals. <br/><br/>RULE THE CITY <br/>You are not alone. The crews that rule the city are watching you, and you will soon face their best drivers. Beat their bosses, and you\'ll take over their district. So far so good \xe2\x80\x93 but all is not what it seems\xe2\x80\xa6 <br/><br/>---- <br/><br/>Make sure you play online to gain access to the latest content and features, and to ensure that your profile is backed up online. <br/><br/>PLEASE NOTE! CSR Racing is free to play, but it contains items that can be purchased for real money. You can toggle these purchases on/off in the "Restrictions" menu on your device. <br/><br/>* Works on iPhone 4S, iPhone 4, iPhone 3GS, iPod touch (3rd and 4th gen), and iPad, iPad 2 and New iPad. * <br/><br/>Requires iOS 4.0 or later. <br/><br/>CSR Racing is published by NaturalMotion Games <br/><br/>-------------------------------------- <br/><br/>** DON\xe2\x80\x99T MISS OUR OTHER GAMES!! Backbreaker, Backbreaker 2, Jenga, Icebreaker Hockey, NFL Rivals and My Horse; find them on the app store now!**</p>'
p4
sS'appid'
p5
S'469369175'
p6
s.