(dp0
S'title'
p1
VApp Trailers
p2
sS'description'
p3
S'<p>**As seen in Apple\'s "What\'s Hot" section!**<br/><br/>Preview Apps and get points that you can redeem with FREE $10 iTunes Codes, PayPal, Amazon and many more with App Trailers!<br/><br/>Watch the hottest high quality streaming videos of Apps in the App Store! The only place you can see a movie preview of an App and get rewarded for it!<br/><br/>Preview Apps that you have never seen before!<br/><br/>App Trailers is completely FREE to use and is a great way to quickly view and check out the best features of an App,<br/><br/>Get App Trailers Today!</p>'
p4
sS'appid'
p5
S'469489347'
p6
s.