(dp0
S'title'
p1
VBejeweled Blitz
p2
sS'description'
p3
S"<p>Treat yourself to an exciting take on the world's #1 puzzle game from PopCap! Play for free as you match and detonate as many gems as you can in 60 action-packed seconds to compete with Facebook friends. Match 3 or more and create cascades of fun with Flame gems, Star gems, and Hypercubes. Add up to three Boosts at a time plus powerful Rare Gems to send your score soaring, and dominate the weekly leaderboards!<br/><br/><br/>EXPLOSIVE EXCITEMENT \xe2\x80\xa8Boost your fun with Detonators, Scramblers and Multipliers. Match as fast as you can to earn Blazing Speed and blow gems away. The \xe2\x80\x98Last Hurrah\xe2\x80\x99 keeps the points piling up even after your time expires. \xe2\x80\xa8\xe2\x80\xa8<br/><br/>REMASTERED SOUND AND GRAPHICS \xe2\x80\xa8Feast your eyes and ears with high definition Retina display graphics and sounds, optimized for iPhones and iPads. See gems sparkle, hear the crackle of blazing speed like never before! \xe2\x80\xa8\xe2\x80\xa8<br/><br/>ROCKET UP THE LEADERBOARD \xe2\x80\xa8On Facebook challenge your friends to beat your best 60 second score. Own the top spot on your weekly tournament leaderboard. Fill your stats to become the ultimate Bejeweled master and earn bragging rights galore. \xe2\x80\xa8\xe2\x80\xa8<br/><br/>RARE GEMS \xe2\x80\xa8Propel your score into the stratosphere with the power of Rare Gems! Unleash the excitement of every Rare Gem found in the Facebook version of the game. \xe2\x80\xa8\xe2\x80\xa8<br/><br/>DAILY SPIN \xe2\x80\xa8Feeling lucky? Play the Daily Spin each day for your chance to win 1,000,000 FREE coins! \xe2\x80\xa8\xe2\x80\xa8<br/><br/>EASY TO LEARN \xe2\x80\xa8Never played Bejeweled Blitz before? No problem! Our interactive tutorial quickly walks you through the basics to get you ready for all the gem-matching action. \xe2\x80\xa8\xe2\x80\xa8\xe2\x80\xa8<br/><br/>We\xe2\x80\x99re sure you\xe2\x80\x99re going to love Bejeweled Blitz! Please be sure to rate the game below and tell us what you think in our forums at PopCap.com. Your feedback helps us make the games you love even better. \xe2\x80\xa8\xe2\x80\xa8\xe2\x80\xa8<br/><br/>More Apps from PopCap: \xe2\x80\xa8<br/>BEJEWELED\xc2\xae - Based on the hit game Bejeweled 3, the new Bejeweled has five sparkling game modes (including the super-popular Diamond Mine), badges, and gorgeous retina display graphics. And if you love playing both games, it's easy to switch between Bejeweled and Bejeweled Blitz from inside each game. \xe2\x80\xa8<br/><br/>PLANTS VS. ZOMBIES\xe2\x84\xa2 \xe2\x80\x94 Get ready to soil your plants in the award-winning action-strategy game. iTunes Rewind 2010 iPhone Game of the Year! \xe2\x80\xa8<br/>PEGGLE\xc2\xae \xe2\x80\x94 Clear the orange pegs in this epic blend of luck and skill. \xe2\x80\xa8<br/><br/>BOOKWORM\xc2\xae \xe2\x80\x94 Feed your appetite for fun in THE brain-tickling word puzzle game. \xe2\x80\xa8<br/><br/>CHUZZLE\xc2\xae \xe2\x80\x94 Slide and match cute, cuddly \xe2\x80\x94 and surprisingly explosive \xe2\x80\x94 furballs. \xe2\x80\xa8\xe2\x80\xa8\xe2\x80\xa8<br/><br/>POPCAP MAKES LIFE FUN! \xe2\x80\xa8Visit us at PopCap.com \xe2\x80\xa8Follow us at twitter.com/PopCap \xe2\x80\xa8Like us at facebook.com/PopCap<br/></p>"
p4
sS'appid'
p5
S'469960709'
p6
s.