(dp0
S'title'
p1
VMajor Mayhem
p2
sS'description'
p3
S'<p>TOP TEN "free" App!<br/><br/>Touch Arcade says Major Mayhem\'s 2.0 update is "ridiculously huge...almost feels like a completely new game!"<br/><br/>\xe2\x80\x9cOne of the best rail shooters on the App Store!\xe2\x80\x9d -IGN 8.5/10<br/>"It\'s funny, fast, violent, and leaves you wanting more." -PocketGamer Silver Medal<br/>"I got points for Chicken Combos." -AppSafari 4.5/5<br/><br/>Meet the newest recruit in the Adult Swim Games army: Major Mayhem. He\'s got an itchy trigger finger, some scratchy stubble, and a fondness for shooting dudes in the face. Run and gun your way through gorgeous 3D environments as you embark on a mission to rescue your kidnapped girlfriend from the Forces of Evil. Guns, grenades and an assortment of other tools of destruction are at your disposal, and you\'ll need every last one of \'em. So what are you waiting for, Major Mayhem? The future of the Free World -- and your love life -- hangs in the balance.<br/><br/>WHAT PEOPLE ARE SAYING:<br/>&gt;&gt; "This is slaughter done right, with enormous weaponry and a huge sense of fun." -PocketGamer<br/>&gt;&gt; "\xe2\x80\xa6extremely enjoyable and addictive. Major Mayhem takes elements from an Operation Wolf style shooting gallery, Canabalt platforming, Gears of War duck-and-cover and Max Payne bullet time, and mixes it into an action-packed budget platformer that\xe2\x80\x99s hard to put down." \xe2\x80\x94TouchGen<br/>&gt;&gt; "Major Mayhem is one of the best rail shooters on the App Store." -IGN<br/>&gt;&gt; "Bring[s] back memories of such games as Lethal Enforcers and Virtua Cop, or even more recent fare such as the Resident Evil Chronicles games for the Wii, though without being quite as serious as any of those." -Slide to Play<br/><br/>FEATURES:<br/>\xe2\x80\xa2 Universal app, optimized for play on iPhone, iPod touch or iPad<br/>\xe2\x80\xa2 45 levels of non-stop action<br/>\xe2\x80\xa2 4 game modes<br/>\xe2\x80\xa2 Game Center Leaderboards<br/>\xe2\x80\xa2 100 achievements<br/>\xe2\x80\xa2 150 mini mission objectives<br/>\xe2\x80\xa2 5 power ups<br/>\xe2\x80\xa2 Battle your way past hordes of enemies in three picturesque environments: Tropics, Metropolis and Desert<br/>\xe2\x80\xa2 20 unique weapons in your arsenal to deal out MAJOR MAYHEM, like:<br/>&gt;&gt; Automatic Shotgun<br/>&gt;&gt; Minigun<br/>&gt;&gt; Quadzooka (like a Bazooka only more massive-er!)<br/>&gt;&gt; And more!<br/>\xe2\x80\xa2 42 costumes and hats to make your Major\'s fashion conscience which dealing massive devastation!<br/>\xe2\x80\xa2 Save the world, and your girlfriend<br/><br/>HAVING PROBLEMS? Help us fix any issues you run into while playing - email games@adultswim.com and tell us what you\'re seeing along with the device/OS version you\'re on.</p>'
p4
sS'appid'
p5
S'470272134'
p6
s.