(dp0
S'title'
p1
VPlumber Crack
p2
sS'description'
p3
S"<p>From the creators of Office Jerk, Plumber Crack has more than 10.5 million downloads - placing it as the #1 game in SPORTS in 80 countries!<br/><br/>\xe2\x98\x86 Pick your plumber: Norm or Betty!<br/>\xe2\x98\x86 Choose from more than 15 items to throw in their butts!<br/>\xe2\x98\x86 Collect coins and earn Bucks to buy costumes, tattoos and throw items!<br/>\xe2\x98\x86 Complete collections over and over again to earn buckets stuffed with Bucks!<br/>\xe2\x98\x86 Arcade, SharpShooter and Time Challenge are now unlocked and ready to play!<br/>\xe2\x98\x86 Now with Game Center leaderboards and more than 55 achievements - impress your friends and family with your crack throwing skills!<br/><br/>Everybody's been there: you try to look away, but you can't stop staring! And now, more than ever, you just want to drop something in there and see what happens...whether it's an Ice Cube, Peanut, Quarter or Bouncy Ball (to name a few).<br/><br/>Take it further, and DRESS UP YOUR  PLUMBER. Toss Norm into a French maid outfit, or put Betty in her snorkelling gear. Are you an Elvis, superhero or sports fan? There\xe2\x80\x99s something for everyone!<br/><br/>Add the finishing touch and ink your plumber with TATTOOS. From \xe2\x80\x9cDaddy's Girl\xe2\x80\x9d to \xe2\x80\x9cBorn To Ride\xe2\x80\x9d - Red Roses to Bullseyes: pick the tattoo you think will look best, and slap it on your favorite backside!  <br/><br/>You've dreamed of dressing up, abusing and inking your local plumber, and now you can! TONS of hours of plain, silly fun from the folks that brought you Office Jerk.<br/><br/>Get it Now - your kitchen will never be the same!<br/><br/>Privacy Policy: http://www.fluik.com/privacy.php</p>"
p4
sS'appid'
p5
S'470225328'
p6
s.