(dp0
S'title'
p1
VHidden Objects: Gardens of Time
p2
sS'description'
p3
S"<p>Join over 16 million players playing Gardens of Time! (Note to Gardens of Time players on Facebook: this game does not connect to your web game, it is a new mobile game.)<br/><br/>Sinister forces have disrupted the space-time continuum! Preserve ancient artifacts by unveiling mysteries with the Time Society! Explore exotic locations and collect unique artifacts on the way!<br/> <br/>Over 100 Hidden Object Scenes to play in over 20 amazing locations around the world! <br/><br/>**** Game Features ****<br/>- Beautiful Hidden Object Scenes<br/>- Paradox Scenes (Can you spot the difference?)<br/>- Exciting locations like Egyptian Pyramids, Taj Mahal, the Great Barrier Reef and more!<br/>- Use hints to guide your search for hidden objects <br/>- Decorate your Garden with amazing structures from throughout history!<br/>- Exclusive items available in Time Crystal chapters!<br/>- Challenge other players through GameCenter and Facebook!<br/>- Visit your friends Gardens and vote for the best!<br/>- Unravel the mysteries of the Time Society and its eclectic members!<br/><br/>**** IMPORTANT ****<br/>- Runs on iPad 1, 2 and 3 ; iPhone 4S, 4, and 3GS; iPod touch 3rd and 4th generation<br/>- Want to play your existing game on your new device? Make sure you login to Facebook to save your game stats for easily transferring your game to other devices<br/>- An Internet connection is required to play Gardens Of Time. The gameplay and stats are NOT connected to the Gardens of Time Facebook game.<br/>- We want to make the game better for YOU! If you have any questions or comments please go to http://playdom.zendesk.com/forums/20422907-gardens-of-time-mobile to contact us.<br/><br/>Don't forget to give us a  review!<br/>**************************************************************<br/>Terms of Use: http://corporate.disney.go.com/corporate/terms-appapp.html<br/>Privacy Policy: http://corporate.disney.go.com/corporate/pp_wdig.html<br/></p>"
p4
sS'appid'
p5
S'473326170'
p6
s.