(dp0
S'title'
p1
VSnoopy\u2019s Street Fair
p2
sS'description'
p3
S"<p>PLEASE NOTE: Snoopy\xe2\x80\x99s Street Fair is free to play, but charges real money for additional in-app content. You may lock out the ability to purchase in-app content by adjusting your device\xe2\x80\x99s settings. <br/>--------------------------------------------------------<br/><br/>What's new in version 1.9.0?<br/><br/>In this update to Snoopy\xe2\x80\x99s Street Fair it\xe2\x80\x99s time to make your gardens burst with life!<br/><br/>A garden\xe2\x80\x99s not a garden without its wildlife. So without further ado, may we introduce:<br/>The Frog, the Snail, the Ferret, the Turtle,the Hedgehog, the White Sheep,the Black Sheep and the Piglet! Everyone of them as cute as a button and oh so adorable...<br/>Peppermint Patty comes to town, catch her dozing under the Daydream Tree!<br/>With our ornamental lawns you can now add turf fit for a king.<br/>Always wanted a Street Entertainer for your fair but never had the Snoopy Dollars to get one? Well now you can hire them for coins! <br/>The Air Hockey table will look totally awesome in your Street Fair!<br/>Add a Flower Tower to your street decorations for a bloom of beautiful buddleias!<br/>Crack a nut on the Coconut Stalls!<br/>Be overawed by the antics of the High Wire Walker!<br/>Give your mazes a regal touch with any of three Flower Stands to guard the entrance: Bunny, Kitty or Lion!<br/>Want to give your walls, hedges and mazes a proper entrance? Get yourself some Cobbled Wall or Hedge Arches <br/>The Wisteria trellis adds a touch of class to any garden.<br/>The Oak Swing Seat is a place for all tired bones to rest and relax in the garden.<br/>New River rafts for the rivers!<br/>Plus, as always, another 2 levels for you to play through!<br/><br/>--------------------------------------------------------<br/><br/>Help Snoopy, Charlie Brown and the entire PEANUTS gang build and organize a street fair!<br/><br/>In this taptastic adventure you\xe2\x80\x99ll decorate Charlie Brown\xe2\x80\x99s neighborhood and fill it with a wealth of wonderful stalls and attractions. Recruit your favorite PEANUTS characters including Sally, Linus and Lucy, just to name a few.<br/><br/>While the rest of the gang is busy with the fair, Snoopy brings his own brand of mischief to the game. Depending on Snoopy\xe2\x80\x99s costume he\xe2\x80\x99ll pounce on piles of leaves, help redesign stalls dressed as Artist Snoopy or, in the case of his Beagle Scout costume, collect marshmallows with his beagle scout troop in tow.  Each costume will also unlock a themed minigame including a lemonade making game, a color mixing game and a marshmallow roasting game.<br/>--------------------------------------------------------<br/><br/>Features:<br/>- 26 PEANUTS characters<br/>- 4 mini-games to unlock (the lemonade-making game, the marshmallow-roasting game, the color-matching game and the Love Test)<br/>- 27 Trading cards to collect<br/>- 45 Original PEANUTS cartoon strips to collect<br/>- A plethora of much loved icons from the PEANUTS universe to interact with (the dog house, the mailbox, the kite-eating tree and many more)<br/>- Social features including the ability to visit friends\xe2\x80\x99 fairs and interact with them<br/>- Take Snoopy Snaps of your friends as they pose in classic PEANUTS scenes.<br/>- Faithful to Charles M. Schulz\xe2\x80\x99s artwork and featuring the classic music and official voice talent<br/><br/>----------------------------------------------<br/>ADDITIONAL NOTES:<br/><br/>iOS will keep you logged on for 15 minutes after an initial in-app purchase. Additional purchases won\xe2\x80\x99t require a re-entry of the password during this 15 minute interval. This is a function of the iOS software and not within our control.<br/><br/>--------------------------------------------------------- <br/><br/>Follow us on Twitter: www.twitter.com/BeelineGames<br/>Follow us on Facebook: www.facebook.com/BeelineGames<br/>Follow us on Youtube: www.youtube.com/BeelineGames</p>"
p4
sS'appid'
p5
S'474517295'
p6
s.