(dp0
S'title'
p1
VSlots Journey HD
p2
sS'description'
p3
S"<p>#\xe2\x9d\xb6slot simulator \xe2\x80\x93 absolutely FREE. <br/><br/>\xe2\x97\x84NO PAY \xe2\x80\x93 JUST PLAY!\xe2\x96\xba <br/><br/>\xe2\x98\x85Get 400 Coins for FREE after installation!<br/>\xe2\x98\x85Grab FREE COINS  as Hourly bonus!<br/>\xe2\x98\x85Bonuses for friends!<br/>\xe2\x98\x85A variety of  BONUS games.<br/>\xe2\x98\x85No Fees. <br/>____________________________________________<br/>Searching  for a trip all over the world but don't have the time or money? <br/>Don`t worry! Slots Journey gives you this opportunity! \xe2\x98\xba<br/>You can enjoy the newest slot machines in the different corners of the world. Such as:<br/><br/># Egypt, <br/># China,<br/># Islands, <br/># Greece, <br/># Transylvania,<br/># Texas,  <br/>#Australia!                                   <br/><br/>Game Features:<br/>\xe2\x98\x85Dozens of different slot machines to unlock and   play.                                        <br/>\xe2\x98\x85Multiply your winnings with various boosters.<br/>\xe2\x98\x85Plenty of bonus games to win extra coins.<br/>\xe2\x98\x85New worlds and adventures are coming constantly.                                                                  <br/><br/>And that\xe2\x80\x99s not all!!!!<br/>What are you waiting for? Download now and get LUCKY!<br/>\xe2\x98\x85The World Needs More Winners!  \xe2\x98\x85   <br/>_____________________________________________<br/></p>"
p4
sS'appid'
p5
S'476937430'
p6
s.