(dp0
S'title'
p1
VLogos Quiz Game
p2
sS'description'
p3
S"<p>This is quiz game full of fun that consists on guessing the names of hundreds of logos from different companies. To achieve this you have a lot of clues which you can use to help you complete the game. You can also ask your friends if you don't know the answer! Challenge them to see who know more logos!<br/><br/><br/>MORE THAN 500 BRANDS!<br/>We are continiously surrounded by company logos, we can see them on TV, walking on the street, at important events... everywhere! But, how many of them can you recognize?<br/><br/><br/>HINTS<br/>If you are blocked and you don't know the answer for a logo, don't give up! Use one of the hints that each logo has!<br/><br/>ASK YOUR FRIENDS<br/>If after using all the hints, you still don't know the answer, don't worry! You can always ask your friends through twitter or facebook, and complete the missing ones with them!<br/><br/><br/>GAME STATS<br/>See how many hits, how many misses and how many close ups questions. Check your total score and share it on facebook or twitter. Compete with your friends!</p>"
p4
sS'appid'
p5
S'478364212'
p6
s.