(dp0
S'title'
p1
VMONOPOLY Hotels
p2
sS'description'
p3
S'<p>ARE YOU A HOTEL MOGUL? Buy, build and manage MONOPOLY\xe2\x80\x99s iconic hotels in this all-new MONOPOLY experience! Check-in to MONOPOLY Hotels \xe2\x80\x93 for FREE!<br/><br/>LET THE MONEY ROLL IN \xe2\x80\x93 ONE ROOM AT A TIME, AS YOU\xe2\x80\xa6 <br/>\xe2\x80\xa2 Take control of MONOPOLY\xe2\x80\x99s luxurious 5-star hotels, from Mediterranean to Boardwalk.<br/>\xe2\x80\xa2 Upgrade hotel rooms and attract VIP guests, like MR. POTATO HEAD and other HASBRO characters.<br/>\xe2\x80\xa2 Customize your hotel with fun attractions like cupcake shops, movie theaters and bowling alleys. <br/>\xe2\x80\xa2 Keep the lights on by managing utilities like the Electric Company and collecting rent from guests.<br/>\xe2\x80\xa2 Expand your property empire beyond hotels with aquariums and other world-class attractions.<br/>\xe2\x80\xa2 Learn the secrets of hotel management and how to \xe2\x80\x9cOwn It All\xe2\x80\x9d from MR. MONOPOLY himself!<br/>\xe2\x80\xa2 Connect with friends via Origin.<br/><br/>Buy it, build it and bank it \xe2\x80\x93 for FREE!<br/><br/>DO NOT DISTURB THE FUN!<br/>Check-in every day for a Daily \xe2\x80\x9cGo\xe2\x80\x9d Bonus and reward yourself for 5-star hotel management. With unlockable challenges and plenty of updates \xe2\x80\x93 like new properties, characters, holiday packs, and more \xe2\x80\x93 there are plenty of reasons to extend your stay.<br/><br/>Pass GO and get building today!<br/></p>'
p4
sS'appid'
p5
S'479412611'
p6
s.