(dp0
S'title'
p1
VBejeweled
p2
sS'description'
p3
S'<p>It\xe2\x80\x99s the biggest, brightest Bejeweled\xc2\xae ever!<br/><br/>Discover all-new ways to play the world\xe2\x80\x99s #1 puzzle game on your iPhone! Find your perfect match with 5 breathtaking game modes. Ease into Classic Bejeweled for cascades of fun, test your gem swapping ability with Lightning, save Butterflies from a hungry spider, dig into Diamond Mine for a gem-blasting challenge, or slip into Zen for a revolutionary new way to relax. Collect flashy Bejeweled badges and achievements as you soar to dazzling new heights in the Game Center leaderboards!<br/><br/>\xe2\x80\x9cBejeweled \xe2\x80\x94 perhaps the most insanely addictive puzzle game ever.\xe2\x80\x9d<br/>\xe2\x80\x94Games Magazine<br/><br/>Game Features:<br/><br/>ARE YOU FAST AS LIGHTNING?<br/>Test your gem-swapping ability in a race against time.<br/><br/>CLASSIC GEM-MATCHING FUN<br/>Play the most popular puzzle game of the century with powerful new gems.<br/><br/>DIG INTO DIAMOND MINE<br/>Blast gems to collect gold, diamonds and buried artifacts before the clock runs out.<br/><br/>RELAX IN ZEN MODE<br/>Customize sights and sounds to create your own relaxing retreat.<br/><br/>SAVE THE BUTTERFLIES!<br/>Match gems to free the butterflies before they move up the board where a hungry spider awaits!<br/><br/>CREATE FOUR SPECIAL GEMS<br/>Create electrifying special gems like Flame gems, Star gems, Hypercubes and Supernova gems!<br/><br/>PROVE YOUR GEM-MATCHING PROWESS<br/>Earn flashy Bejeweled badges and Game Center achievements to prove your multifaceted skills! <br/><br/>MORE COOL FEATURES<br/>Awesome retina display graphics \xe2\x80\x94 Bejeweled is more sparkling than ever before! <br/><br/>Ultra-Smooth Action \xe2\x80\x94 Make multiple matches while new gems fall into place.<br/><br/>Hints on Demand \xe2\x80\x94 Can\'t quite spot the next match? Use the "Hint" button for a quick tip.<br/><br/>Stats Galore  \xe2\x80\x94  Gloat over your scores for total matched gems, all-time best moves and top 10 personal bests in Classic and Diamond Mine!<br/><br/><br/>PLEASE NOTE: Bejeweled has ultra-awesome graphics, so you\xe2\x80\x99ll need a 3rd generation (16gb or larger) or later iPod touch, iPhone 3GS, or iPhone 4/4S to play. Please make sure your device is compatible prior to purchase. <br/><br/>More Apps from PopCap:<br/><br/>PLANTS VS. ZOMBIES\xe2\x84\xa2 \xe2\x80\x94 Soil your plants in the award-winning action-strategy game. iTunes Rewind 2010 iPhone Game of the Year.<br/>ZUMA\xe2\x80\x99S REVENGE!\xe2\x84\xa2 \xe2\x80\x94 Take on the tikis in this ball-blasting challenge!<br/>PEGGLE\xc2\xae \xe2\x80\x94 Clear the orange pegs in this epic blend of luck and skill.<br/>BOOKWORM\xc2\xae \xe2\x80\x94 Feed your appetite for fun in THE brain-tickling word puzzle game.<br/>CHUZZLE\xc2\xae \xe2\x80\x94 Slide and match cute, cuddly \xe2\x80\x94 and surprisingly explosive \xe2\x80\x94 furballs.<br/>POPCAP MAKES LIFE FUN!<br/><br/><br/>Visit us at PopCap.com<br/>Follow us at twitter.com/PopCap<br/>Like us at facebook.com/PopCap</p>'
p4
sS'appid'
p5
S'479536744'
p6
s.