(dp0
S'title'
p1
VMinecraft \u2013 Pocket Edition
p2
sS'description'
p3
S'<p>The latest update includes crafting, chests, creepers and beds!<br/><br/>Imagine it, build it. Create worlds on the go with Minecraft - Pocket Edition<br/><br/>Minecraft - Pocket Edition allows you to build on the go. Use blocks to create masterpieces as you travel, hangout with friends, sit at the park, the possibilities are endless. Move beyond the limits of your computer and play Minecraft everywhere you go.<br/><br/>* Crafting<br/>* Randomized worlds<br/>* Build anything you can imagine<br/>* Build with several different kinds of blocks<br/>* Invite and play with friends to your world (local wireless network)<br/>* Save multi-player worlds on your own phone</p>'
p4
sS'appid'
p5
S'479516143'
p6
s.