(dp0
S'title'
p1
VFairyFail\u2122
p2
sS'description'
p3
S'<p>Once upon a time in the Fairyland there lived kind and evil animals but somehow they miraculously got mixed. The evil animals disturbed all the rest. The kind creatures asked a hunter to help them to catch the evil ones. <br/>In a night he caught all, the kind and the evil. He couldn\xe2\x80\x99t help it \xe2\x80\x93 it was dark. <br/>Now you\xe2\x80\x99ve got an opportunity to correct his mistake. Release kind animals, so that the evil don\xe2\x80\x99t interfere with them. <br/><br/>The bears and Fireflies are kept in dungeons in cages. Mind the kind and evil creatures are kept together in cages. There\xe2\x80\x99s no sense to save all of them. Which of them and how to release? <br/><br/>What is in store for you? <br/>\xe2\x9c\x94 Addictive \xe2\x80\x9cAim and Shoot\xe2\x80\x9d Gameplay <br/>\xe2\x9c\x94 Retina Display graphics with AAA+ quality graphics and magnificent animated effects <br/>\xe2\x9c\x94 Realistic physical game engine <br/>\xe2\x9c\x94 Achievements <br/>\xe2\x9c\x94 80 Awesome Levels</p>'
p4
sS'appid'
p5
S'479914917'
p6
s.