(dp0
S'title'
p1
VAngry Gran
p2
sS'description'
p3
S"<p>Angry Gran is angry and needs money! Whack your enemies like pi\xc3\xb1atas until the cash comes flying out.<br/><br/>With a plethora of crazy weapons including an inflatable hammer, a baguette and a rubber chicken, madness is sure to ensue.<br/><br/>What's in the secret recipe? Why does the tree taste fruity? How on Earth did Granny get a hold of a skateboard? Download now for FREE and find out!<br/><br/><br/>=============<br/>Chart Ratings<br/>=============<br/>NUMBER ONE! in United Kingdom, Austria, Finland, Greece, Indonesia, Pakistan and Russia Games charts and maybe more!<br/><br/>Reached NUMBER TWO! in the United States of AMERICA! in ALL free apps.<br/><br/>TOP 10 in at least 21 countries in FREE apps.<br/><br/>TOP 5 in at least 18 countries in GAMES chart.</p>"
p4
sS'appid'
p5
S'481664999'
p6
s.