(dp0
S'title'
p1
VMystery Manor: Hidden Adventure HD
p2
sS'description'
p3
S'<p>A dreadful Event took place in the Manor and completely ruined the ordinary life of its inhabitants. Their deeply loved master Mister X has suddenly disappeared leaving nothing but a strange message. Only you can break the secret of the Mystery Manor. Jump into the crazy hidden objects action! <br/><br/>Mystery Manor is a mystery-style hidden objects game. In a mystic mansion, inhabited by strange but lovely people, spooky monsters and funny ghosts you\xe2\x80\x99ll have to find hidden objects, unlock new rooms and complete quests. Mystery Manor is a never-ending game. New quests, rooms, characters are being added on a regular basis. Unlike all other Hidden Objects genre games, you will never finish the game. Despite of the great gameplay and premium graphics quality, the game is absolutely free!<br/><br/>Some great features:<br/>- Explore through the atmosphere of mystery<br/>- Captivating detective story line<br/>- Beautiful hand-drawn graphics<br/>- A wide variety of objects to search and puzzles to solve<br/>- Search for the objects in different modes: words, shadow-figures, phenomena, and Zodiac modes.<br/>- Regular updates with new characters, rooms, and quests <br/>- Never-ending mystic gameplay<br/>- Help your friends and ask for their help in return<br/>- Find yourself in the world of pure madness!<br/>- Absolutely FREE<br/><br/>Official Page on Facebook: https://www.facebook.com/MManorHD<br/><br/>Gameplay video: http://www.youtube.com/watch?v=9xHfT-5X5Ys</p>'
p4
sS'appid'
p5
S'482546787'
p6
s.