(dp0
S'title'
p1
VPinball HD Collection
p2
sS'description'
p3
S'<p>Available now:  Arcade Pinball -- your own portable mini-arcade!<br/><br/>This unique table features pinball bumpers and targets, plus a color monitor where you can take on a variety of old-school digital minigame challenges - an endless space scroller, plus car racing, missile defense, a block breaker, and more at incrementing skill levels.<br/><br/>Plays with Duo Pinball, the app-supported pinball controller for iPad\xc2\xae!<br/><br/>Experience some pinball wizardry using Duo Pinball\'s flipper buttons and spring-loaded plunger!<br/><br/>(Go to www.duo-games.com/duopinball for more info.) <br/><br/>--- <br/>\xe2\x9d\x92 Listed by Apple in "Best 10 iPad Apps in 2010"<br/>\xe2\x9d\x92 Apple Design Awards 2010 winner<br/>\xe2\x9d\x92 1st place in US top paid apps during the first sales day<br/><br/>"I really can\'t see pinball on the iPad getting much better than this."<br/>-- David Winograd, TUAW.com<br/><br/>"The experience of holding a pinball table in your hand is great, and with three amazing tables included, you\'ll have hours of entertainment lined up."<br/>-- Tim Rattray, SlideToPlay.com<br/><br/>"With three tables, reliable physics and controls, and gorgeous graphics, it is a pleasure to recommend."<br/>-- Levi Buchanan, IGN.com<br/><br/>\xe2\x9c\xadABOUT THE GAME\xe2\x9c\xad<br/>Pinball HD Collection - This game will change your idea of Pinball on the iPad. Each table - Wild West, The Deep, Jungle Style, AC/DC, Slayer, Snow, Da Vinci, Missing In Action, Navy Seals and Platoon - are masterpieces. You\'ll be stunned with the level of realism. This is a REAL Pinball simulator with stunning 3D graphics both with or without 3D glasses.<br/><br/>\xe2\x9c\xadIMPORTANT\xe2\x9c\xad<br/>\xe2\x80\xa2 Landscape mode - "full table" view<br/>\xe2\x80\xa2 Portrait mode - "flying-table" view<br/>\xe2\x80\xa2 In portrait mode slide up or down your both thumbs to toggle camera view from "flying-table" to "full table".<br/><br/>\xe2\x9c\xadFEATURES\xe2\x9c\xad<br/>\xe2\x9c\x94 10 pinball tables with unique graphics, instructions, missions system, locations and characters<br/>\xe2\x9c\x94 Landscape mode shows a full table view. The games can be played in either landscape orientation with the button to the left or right of the screen.<br/>\xe2\x9c\x94 Portrait mode gives you a flying-table view with the camera panning and zooming over the action. This can only be played when holding the iPad with the button on the bottom. If you activate the screen orientation switch, the game only plays in portrait mode.<br/>\xe2\x9c\x94 A wonderful 3D engine that does true justice to the graphic capabilities of the iPad.<br/>\xe2\x9c\x94 Realistic physics.<br/>\xe2\x9c\x94 Built in help for each table. Tap the circled "I" at the bottom right of each table to get a display detailing instructions and descriptions of the features of each table. Make sure to swipe left and right when viewing since the instructions don\'t fit on one screen.<br/>\xe2\x9c\x94 Local and global high scores. Swiping right brings up a table of local high scores and further tapping brings up high scores from copies sold throughout<br/>the world. At the end of each game you are prompted to enter your name and have your score included.<br/>\xe2\x9c\x94 Unique soundtrack with atmospheric music, sound effects and voices.<br/>\xe2\x9c\x94 Camera tilt brings dimensionality to the games offering a simulated 3D effect where the image changes depending upon how you tilt the iPad. Camera tilt only works in landscape mode.<br/>\xe2\x9c\x94 Stereoscopic imaging option (requires anaglyph eyeglasses). You can choose between red-cyan, green-magenta or yellow-blue lenses.<br/><br/>\xe2\x9c\xadHOW TO PLAY\xe2\x9c\xad<br/>Tapping on a game\'s fly-over screen shows/hides main menu. Tap on Play button to start game on current table.<br/>Controls in game:<br/>\xe2\x80\xa2 Tap ANYWHERE on the left side of screen to control the left flipper and ANYWHERE on the right side to control the right flipper.<br/>\xe2\x80\xa2 Shake your iPad to realistically nudge the pinball table, but not too much or you\'ll tilt.<br/>\xe2\x80\xa2 Tap on the "electronic caption" at the top of the screen to pause or resume your game.<br/><br/>Follow us on:<br/>\xe2\x80\xa2 Twitter - http://twitter.com/Gameprom<br/>\xe2\x80\xa2 Facebook - http://www.facebook.com/Gameprom<br/>\xe2\x80\xa2 YouTube channel - http://www.youtube.com/GamepromCompany<br/>\xe2\x80\xa2 News blog - http://gameprom.com/blog/<br/>\xe2\x80\xa2 Company site - http://gameprom.com</p>'
p4
sS'appid'
p5
S'484550839'
p6
s.