(dp0
S'title'
p1
VAngry Piggy\u2117
p2
sS'description'
p3
S"<p>Yes! We\xe2\x80\x99re not Bad Piggies, but we\xe2\x80\x99re Angry! Who says pig can\xe2\x80\x99t defeat Chick? Check out the Brand New Angry Piggy!<br/><br/>\xf0\x9f\x91\xbfThe Blue Chick is the Worst Terrorist!\xf0\x9f\x91\xbf <br/><br/>\xf0\x9f\x98\xa1How can we tolerate our beautiful homes being destroyed?!<br/>\xf0\x9f\x98\xa1How can we let the Blue Chick go rampant?!<br/>\xf0\x9f\x98\xa1How can we lose our dignity as pigs?!<br/>\xf0\x9f\x98\xa1The piggies are about to fight back!<br/>\xf0\x9f\x98\xa1Attack the Blue Chick's lair and take the Golden Eggs! <br/><br/>\xf0\x9f\x94\xa5Our brand new Maze Adventure Game: the new leading trend of iPhone games!  <br/><br/>\xf0\x9f\x91\x8d\xf0\x9f\x91\x8d\xf0\x9f\x91\x8dFeatures\xf0\x9f\x91\x8d\xf0\x9f\x91\x8d\xf0\x9f\x91\x8d<br/>1, Piggies and chicks are on with brand new adorable appearances!<br/>2, Exquisite graphics, rich and interesting character animation.<br/>3, More than 40 different styles of level designs.<br/>4, Brand new games, including puzzles, adventures and many more.  <br/>5, Cheerful background music and funny sound effects.  <br/>6, All levels come with graphics and videos.<br/><br/>Up next: introducing new character Piggy Girl, who can beat the Blue Chick with her brand new super power!</p>"
p4
sS'appid'
p5
S'488175405'
p6
s.