(dp0
S'title'
p1
VCalorie Counter and Diet Tracker by MyFitnessPal HD
p2
sS'description'
p3
S'<p>Lose weight with MyFitnessPal, the fastest and easiest to use calorie counter (now optimized for iPad!). With the largest food database of any calorie counter (over 2 million foods), and amazingly fast food and exercise entry, we\xe2\x80\x99ll help you take those extra pounds off! There is no better diet app \xe2\x80\x93 period.<br/><br/>\xe2\x96\x8cPC Magazine Editor\'s Choice Selection - iPhone<br/>\xe2\x96\x8cWired Magazine\'s Editor\'s Pick for Lifestyle Apps <br/><br/>Also featured in the NY Times, Wall Street Journal, USA Today, Family Circle, Marie Claire, NBC, CNET, Shape, the Today Show and more.<br/><br/>\xe2\x96\x8cWHAT PEOPLE ARE SAYING ABOUT MYFITNESSPAL:<br/>\xe2\x96\xa0 \xe2\x80\x9cThis is the best calorie counter on the iPhone, free or paid, and I\xe2\x80\x99ve tried them all.\xe2\x80\x9d<br/>\xe2\x96\xa0 \xe2\x80\x9cThe food database is HUGE! I\xe2\x80\x99ve NEVER had a missing food.\xe2\x80\x9d<br/>\xe2\x96\xa0 \xe2\x80\x9cThe first diet tool that has ever worked for me! I\xe2\x80\x99ve lost 30 pounds!"<br/>\xe2\x96\xa0 \xe2\x80\x9cThis app takes seconds to use, it\xe2\x80\x99s that simple."<br/>\xe2\x96\xa0 "I can\xe2\x80\x99t believe this app is free! I would have paid for this.\xe2\x80\x9d<br/>\xe2\x96\xa0 "This app literally saved my life. Thank you MFP!"<br/><br/>\xe2\x96\x8cWHY WE\xe2\x80\x99RE BETTER THAN OTHER APPS<br/>\xe2\x96\xa0 Largest food database of any iPad calorie counter \xe2\x80\x93 over 2,000,000 foods, with a streamlined database available offline<br/>\xe2\x96\xa0 Easiest and fastest food entry \xe2\x80\x93 remembers your favorites, add multiple foods at once, save and add entire meals, and more. THERE IS NO FASTER OR EASIER APP THAN MYFITNESSPAL.<br/>\xe2\x96\xa0 Free barcode scanner - easily find foods you\xe2\x80\x99ve eaten. Other apps charge for this, ours is 100% free.<br/>\xe2\x96\xa0 Fully syncs with the web, so you can log from your computer or your phone, which ever is more convenient. Plus your data is backed up online so you never lose it.<br/>\xe2\x96\xa0 Diet with your friends - add friends and easily track and support each other\'s progress<br/>\xe2\x96\xa0 Works offline* \xe2\x80\x93 Great for the plane, bad coverage, etc. NO INTERNET CONNECTION REQUIRED<br/>\xe2\x96\xa0 IT WORKS \xe2\x80\x93 our users have lost more than 20 million pounds combined! Their success shows we can help you lose weight too.<br/><br/>\xe2\x96\x8cFOOD<br/>\xe2\x96\xa0 2,000,000+ food database, plus streamlined database available offline. Updated daily. <br/>\xe2\x96\xa0 Track all major nutrients: calories, fat, protein, carbs, sugar, fiber, cholesterol, and more<br/>\xe2\x96\xa0 Frequently used foods automatically remembered for easy access<br/>\xe2\x96\xa0 Scan barcodes to easily find the foods you\xe2\x80\x99ve eaten<br/>\xe2\x96\xa0 Save and reuse entire meals<br/>\xe2\x96\xa0 Recipe calculator - Enter your own recipes and calculate their nutritional contents<br/>\xe2\x96\xa0 Add multiple items at once!<br/>\xe2\x96\xa0 Create an unlimited number of custom foods<br/><br/>\xe2\x96\x8cEXERCISE<br/>\xe2\x96\xa0 Over 350 exercises<br/>\xe2\x96\xa0 Track both cardio and strength training, including sets, reps, and weight/rep<br/>\xe2\x96\xa0 Create an unlimited number of custom exercises<br/>\xe2\x96\xa0 Enter your own calorie amounts \xe2\x80\x93 great for HRM\xe2\x80\x99s or exercise equipment with calorie reports<br/><br/>\xe2\x96\x8cFRIENDS<br/>\xe2\x96\xa0 Connect with friends and easily track and motivate each other<br/>\xe2\x96\xa0 MyFitnessPal members who diet with friends lose 3X more weight on average!<br/><br/>\xe2\x96\x8cGOALS<br/>\xe2\x96\xa0 Customized goals based on your specific diet profile \xe2\x80\x93 age, gender, activity level, etc.<br/>\xe2\x96\xa0 Enter your own goals if you\xe2\x80\x99ve gotten specific recommendations from a doctor, nutritionist, etc.<br/><br/>\xe2\x96\x8cREPORTS<br/>\xe2\x96\xa0 Track your weight, measurements and more for motivation<br/>\xe2\x96\xa0 Daily nutritional summary with all major nutrients<br/>\xe2\x96\xa0 View more detailed reports online at www.myfitnesspal.com<br/><br/>\xe2\x96\x8cON THE WEB AT WWW.MYFITNESSPAL.COM<br/>\xe2\x96\xa0 Get support and motivation from our community of millions of dieters just like you<br/>\xe2\x96\xa0 Entries are automatically synced to the web and vice versa, so you can log online or on your phone, whichever is more convenient<br/>\xe2\x96\xa0 Automatically post your progress to Twitter and Facebook (optional)<br/><br/>Note: a MyFitnessPal.com account is required to sync and safely backup your data. You can create an account for free within the app. <br/><br/>*When an internet connection is unavailable, a streamlined food database is available for offline logging.</p>'
p4
sS'appid'
p5
S'488519281'
p6
s.