(dp0
S'title'
p1
VDraw Something
p2
sS'description'
p3
S'<p>Play the AD-FREE version of Draw Something, the most popular social drawing and guessing game in the App Store! Experience for yourself the laugh-out-loud game your friends are raving about!  Plus unlock these exclusive bonuses:<br/>- 2000 More Words! <br/>- 200 FREE Coins!<br/>- 5 FREE Hints!<br/>____________________________________<br/><br/>Not ready to buy? Download the FREE version - Draw Something Free<br/><br/>If you already have the free version, switching to the paid version is easy! Your existing account, games, and friends will carry over automatically to this ad-free version. IMPORTANT NOTE: AFTER UPGRADING, DELETE THE FREE VERSION<br/><br/>PLEASE NOTE: if you are having trouble finding your Draw Something account password, please check the welcome email you received when you signed up or email feedback@omgpop.com<br/><br/>_____________________________________<br/><br/>PRAISE FOR DRAW SOMETHING BY OMGPOP<br/>\xe2\x80\x9c\xe2\x98\x85 \xe2\x98\x85 \xe2\x98\x85 \xe2\x98\x85 \xe2\x98\x85  Keeps me entertained for hours.\xe2\x80\x9d - Jspronk<br/><br/>\xe2\x80\x9c\xe2\x98\x85 \xe2\x98\x85 \xe2\x98\x85 \xe2\x98\x85 \xe2\x98\x85  Awesome!!! My New Addiction" - Paul B<br/><br/>"\xe2\x98\x85 \xe2\x98\x85 \xe2\x98\x85 \xe2\x98\x85 \xe2\x98\x85 BEST GAME IN IPHONE HISTORY" - Brian R<br/><br/>ADDICTIVE FEATURES<br/><br/>\xe2\x98\x85 Play with Friends on iPhone, iPad and iPod Touch!<br/>Challenge friends on Facebook or Twitter, or be automatically partnered with new gaming buddies.<br/><br/>\xe2\x98\x85 Turn-based Gameplay<br/>Perfect for gamers-on-the-go! Take turns drawing and guessing at your own pace.<br/><br/>\xe2\x98\x85 Leaderboard<br/>Rally back and forth with friends for the most \xe2\x80\x9cTurns.\xe2\x80\x9d<br/><br/>\xe2\x98\x85 Push Notifications<br/>Be alerted when it\xe2\x80\x99s your turn to draw or guess.<br/><br/>\xe2\x98\x85 Color Packs<br/>Turn simple doodles into  rich masterpieces with color packs.<br/><br/>\xe2\x98\x85 Bombs<br/>Stumped by a difficult word? Exchange it for a new one by exploding it with a bomb.<br/><br/>Become a fan! Get exclusive rewards and stay up to date on our latest news.<br/>Like us on Facebook: http://www.facebook.com/playdrawsomething<br/><br/>If you like Draw Something, try other iPhone games by OMGPOP!<br/>Boom Friends - The explosively addictive puzzle game!<br/>Puppy World -  Raise adorable puppies in The Cutest Game in the Universe!<br/><br/>\xe2\x98\x85 \xe2\x98\x85 \xe2\x98\x85 \xe2\x98\x85 \xe2\x98\x85 \xe2\x98\x85 \xe2\x98\x85 \xe2\x98\x85 \xe2\x98\x85 \xe2\x98\x85 \xe2\x98\x85 \xe2\x98\x85 \xe2\x98\x85 \xe2\x98\x85 \xe2\x98\x85 \xe2\x98\x85 \xe2\x98\x85 \xe2\x98\x85 \xe2\x98\x85 \xe2\x98\x85 \xe2\x98\x85 <br/>Use of this application is governed by the Zynga Terms of Service. Collection and use of personal data are subject to Zynga\'s Privacy Policy. Both policies areavailable in the Application License Agreement below as well as at www.zynga.com. Social Networking Service terms may also apply.</p>'
p4
sS'appid'
p5
S'488627858'
p6
s.