(dp0
S'title'
p1
VTap Paradise Cove
p2
sS'description'
p3
S"<p>Can you turn this mysterious island into a thriving colony?<br/><br/>Explore the fog, build your town, and attract residents and merchants--all while unraveling the mysteries and adventures of Paradise Cove's hidden treasure.<br/><br/>TONS OF FREE, FUN FEATURES:<br/><br/>\xe2\x80\xa2 *NEW!* Find rare mermaids and commission them to hunt for valuable riches in a game of luck and chance.<br/>\xe2\x80\xa2 *NEW!* PVP! Arm your battleships and defend your territory against savage pirates and other players.<br/>\xe2\x80\xa2 Transform your tiny village into a bustling city full of houses, shops, and shiny, happy people.<br/>\xe2\x80\xa2 Discover ancient ruins, mystic sages, exotic animals, and more as you piece together the Treasure Map!<br/>\xe2\x80\xa2 Build and upgrade dozens of homes, shops!<br/><br/>And best of all--play free, forever! Welcome to Paradise.<br/><br/>------------------------------------------<br/>PLEASE NOTE: Tap Paradise Cove lets you purchase items within the game for real money. Please disable in-app purchases on your device if you do not want this feature to be accessible.</p>"
p4
sS'appid'
p5
S'488845680'
p6
s.