(dp0
S'title'
p1
VAction Movie FX
p2
sS'description'
p3
S'<p>ACTION MOVIE FX lets you add Hollywood FX to iPhone movies YOU shoot! <br/>YOU direct the ACTION! And FREE FOR A LIMITED TIME \xe2\x80\x93 4 Movie FX packs!!<br/><br/>Here\'s how it works:<br/>Select a Scene like "MISSILE ATTACK," film a target and ACTION MOVIE FX adds an INCOMING MISSILE AND ITS EXPLOSION right into your movie!<br/><br/>FEATURES:<br/><br/> \xe2\x80\xa2 4 FREE Big-Budget FX! MISSILE ATTACK, CAR SMASH, DEMOLITION ROCK &amp; ROUGH TERRAIN!<br/> \xe2\x80\xa2 Sound Design By Skywalker Sound!<br/> \xe2\x80\xa2 Fast, Automated Video Tracking!<br/> \xe2\x80\xa2 Music, Sound FX and Lens Flares!<br/> \xe2\x80\xa2 Post to Facebook or Email to friends!<br/><br/>USES:<br/>Look like an action star as you evade a massive CAR CRASH!<br/>Direct a MISSILE ATTACK at that broken office printer!<br/><br/>**Post your videos to Facebook &amp; show the world what you got!**<br/><br/>GET CREATIVE! Shoot your movies at ANY SCALE \xe2\x80\x93 from toys to life-size! <br/><br/>ADDITIONAL FX FOR PURCHASE:<br/>\xe2\x80\xa2CHOPPER DOWN &amp; TORNADO ACTION BUNDLE<br/>\xe2\x80\xa2AIRSTRIKE &amp; FIRE FIGHT ATTACK BUNDLE<br/>\xe2\x80\xa2SIDE-SWIPED &amp; CROWD CONTROL<br/>\xe2\x80\xa2THE JET &amp; POWER FAILURE<br/>\xe2\x80\xa2DISASTER MOVIE PACKS:<br/>  - ELECTRO-STRIKE &amp; METEOR FROM OUTER SPACE<br/>  - GROUND SUCKERS &amp; FLASH FLOOD<br/><br/><br/>MORE FX TO COME \xe2\x80\x93 STAY TUNED!!!<br/><br/>Requirements:<br/><br/>\xe2\x80\xa2 iPhone 3GS, iPhone 4 or 4s<br/>\xe2\x80\xa2 iPad 2<br/>\xe2\x80\xa2 iPod Touch 4th Gen<br/><br/>Support &amp; Tips:<br/>Please email support@actionmoviefx.com with support questions or requests for tips!</p>'
p4
sS'appid'
p5
S'489321253'
p6
s.