(dp0
S'title'
p1
VMove the Box
p2
sS'description'
p3
S'<p>The best puzzle game ever! Became the #1 Free App in more than 40 countries!<br/><br/>+ simple rules but tricky challenges<br/>+ 672 fascinating levels<br/>+ millions of downloads<br/><br/>Move the Box is a logic puzzle about moving boxes around. Clean the dock, do it fast!<br/><br/>You can move, drop and swap the boxes. Three or more boxes of the same kind in a line disappear. Watch out for turns, you only have a limited number!</p>'
p4
sS'appid'
p5
S'491113310'
p6
s.