(dp0
S'title'
p1
VThe Tribez HD
p2
sS'description'
p3
S"<p>Tribez is not just a game! Tribez is an adventure, where you travel to a distant past full of secrets, mysteries and many hours of addictive discovery of an unknown, but beautiful world! <br/><br/>You are invited to visit a mysterious, primitive world inhabited by a peace-loving people, who have been hidden behind a miles-deep portal from time immemorial. Build your own stone-age village, explore territories hidden by mountains and seas, and lead your tribe, who considers you sent by the gods, to prosperity. <br/><br/>Progress through tons of buildings and structures, from primitive mud huts, to advanced workshops, schools, and even theater. Interesting quests and many helpers await in a fascinating world, illustrated to the last detail. Tribez is all about this and more! <br/>Help the leaders of neighbouring tribes, develop your country's economy, discover new lands, populate them with your tribesmen, and tame dinosaurs! Tribez is a world in which you feel alive! <br/><br/>- Gorgeous graphics down to the smallest detail <br/>- Lively animations make the prehistoric world come to life on your iPad <br/>- Stunning sounds <br/>- Tons of objects, characters, buildings and decorations <br/>- Truly inexhaustible possibilities to develop your own stone-age empire <br/>- Hundreds of captivating quests: search for treasure and artifacts, discover distant islands, expeditions to mysterious caves and much, much more!<br/><br/>Official Page on Facebook: http://on.fb.me/Tribez_iPad<br/>Game Trailer: http://www.youtube.com/watch?v=w4oT9D7_06Y</p>"
p4
sS'appid'
p5
S'494254145'
p6
s.