(dp0
S'title'
p1
VTheEndApp
p2
sS'description'
p3
S'<p>Bloody hell! London is under water! Run, like hell to Survive! Survivoress and Yukiko are lost in London, but Bobby, the British cop knows the whole city inside out! The whole city is flooded, sandbags block your way, shipwrecked vessels block your view, BigBen is crashed, double-deckers capsized, and police cars burned down, but the TowerBridge still stands!<br/><br/>Download TheEndApp and get lost in the madness! There is more action than you can handle! Don\xe2\x80\x99t forget: never ever take your eyes off the duct tape. Collect them!<br/><br/>\xe2\x98\x85\xe2\x98\x85\xe2\x98\x85 Features: \xe2\x98\x85\xe2\x98\x85\xe2\x98\x85<br/><br/>\xe2\x98\x86 Original water effects;<br/>\xe2\x98\x86 3 new characters with unique animation and original voice overs;<br/>\xe2\x98\x86 New music;<br/>\xe2\x98\x86 New challenges, 7 days, five each;<br/>\xe2\x98\x86 Running in four new environments, fifty new levels;<br/>\xe2\x98\x86 Bug fixes;<br/>\xe2\x98\x86 Redesigned User Interface;<br/>\xe2\x98\x86 New main screen animation;<br/>\xe2\x98\x86 Chance for Free users to look around in the Pro Zone, the Pro Ticket;<br/>\xe2\x98\x86 Chance to earn free duct tape /virtual currency/;<br/>\xe2\x98\x86 Flawless and challenging game play;<br/>\xe2\x98\x86 New Master and London achievements;<br/>\xe2\x98\x86 Game Center improvements;<br/>\xe2\x98\x86 Endless runner for free, gratis;<br/>\xe2\x98\x86 TheEndApp retina game pleases your eyeballs!</p>'
p4
sS'appid'
p5
S'494921441'
p6
s.