(dp0
S'title'
p1
VGhost Sniper : Zombie
p2
sS'description'
p3
S"<p>\xe2\x98\x85 \xe2\x80\x9cFree\xe2\x80\x9d Event in Celebration of 1 Million Downloads<br/><br/>1) $1.99 -&gt; Free<br/>2) 1000 One Shot Point for Free<br/>3) 2-star Sniper Rifle for Free<br/><br/>A shocking encounter between Defense and FPS<br/><br/>Attack the zombies to save the civilians!!!<br/><br/>\xe2\x98\x85 This is a premium game of the highest quality that is optimized for iPhone with the following features:<br/><br/>1)Provides high quality graphics as it was produced in full HD.<br/><br/>2) It was honored with the Global App Award in recognition of its game quality.  <br/><br/>3) The high quality visual and sound effects will give you a sense of realism during each blow and attack.  <br/><br/>4) The diverse and unique zombies will keep you tense and on the edge of your seats. <br/><br/>5) With the controls optimized for smartphones, the feeling of enthrallment is right at your fingertips. <br/><br/>6) There is never a dull moment thanks to the strategic level configuration, and you will feel an incredible excitement as you attack your enemies. <br/><br/>7) It reflects the wind direction, bullet speed and ballistics, giving you a sense of realism.  <br/><br/>8) This game has depth with the growth and equipment systems, etc. <br/><br/><br/>* This game is introduced as a winner of the Global App Award and featured APP.<br/><br/>1) jack*** : Finding this kind of high-quality game always gives me a thrill.<br/><br/>2) pagk*** : Sniping zombies? Super cool! This reminds me of Dawn of The Dead.<br/><br/>3) nola*** : A frightening boss that never dies by sniping! It is clever that the game make us use the hidden claymore mine.<br/><br/>4) afdo*** : It is surprising that this game provides better control interface and realistic shooting sense than games for desktop computer<br/><br/>5) fefe*** : At first I thought this was a simple game that just touches screen all the time. But it is far more than that. Strategic factors all over the game excite me!<br/><br/>\xe2\x98\x85 Opinions from beta testers and power bloggers.<br/><br/>1) 9181 : my hands got sweaty after completing a stage.<br/><br/>2) 8347 : this game is just perfect. Not too hard, not too easy. Maybe a little bit difficult. But without this difficulty, it won't be exciting.<br/><br/>3) 1033 : Spectacular effects! Am I a wacko? I felt catharsis all the time I was sniping zombies.<br/><br/>4) 0025 : A perfect balance of a scope, secondary weapons, and mission.</p>"
p4
sS'appid'
p5
S'496122897'
p6
s.