(dp0
S'title'
p1
VChicken Revolution : Warrior
p2
sS'description'
p3
S"<p>*****************************<br/>Limited Time FREE!!!<br/>Get it now and don\xe2\x80\x99t miss out!<br/>*****************************<br/><br/><br/>Chicken Revolution : Warrior is an action game filled with simple and various fun as a spin off game of Chicken Revolution.<br/>As supporting more than a hundred of weapons, items and skills, various enemies more than 100 kinds appear.<br/><br/>Scenario:<br/>One time, chickens and human beings lived and exchanged peacefully in their own territories.  <br/>However, the greedy human started being greedy for chicken species' richness, and chickens fall to human's slaves due to the several chickens who made deals with greedy human.  <br/>'Wattles', the chicken who got angry at this resolves to revenge on the betrayers.<br/><br/>Featured:<br/>-Providing 4 kinds of weapon(sword, spear, axe and throw).<br/>-Providing different sense of hitting for each weapon. <br/>-Providing more than 100 kinds of weapon. <br/>-Supporting various costume.<br/>-Supporting various kinds of skill.<br/><br/>============================= <br/>Support Information: <br/>For additional support, please contact: <br/>E-mail : bluewhistle7@gmail.com</p>"
p4
sS'appid'
p5
S'503028774'
p6
s.