(dp0
S'title'
p1
VToy Defense
p2
sS'description'
p3
S'<p>Experience a totally explosive gameplay in the new tower defense game in the WWI setting! Now you have even more opportunities, many more weapons and tactical tricks. Eliminate foes, defend your base and feel for yourself the atmosphere of the true born warfare. Lead your army to victory by any means!\xc2\xa0<br/><br/>Toy soldiers but real war!\xc2\xa0<br/><br/>-----------------------------------------\xc2\xa0<br/><br/>Not ready to buy? Try Toy Defense Free. You\xe2\x80\x99ll be able to defend the first world and 6 levels of the second and third worlds absolutely free. <br/><br/>Also available on iPad! Take part in the mass-scale battles on the big screen in full HD! Check the App Store!\xc2\xa0<br/><br/>-----------------------------------------\xc2\xa0<br/><br/>Game features:\xc2\xa0<br/>- Intense World War I atmosphere\xc2\xa0<br/>- 72 perfectly designed levels\xc2\xa0<br/>- 4 historically accurate weapons with 24 upgrades\xc2\xa0<br/>- 9 different enemies\xc2\xa0<br/>- 16 awards\xc2\xa0<br/>- No ads<br/>- All worlds are available without additional fees<br/>- GameCenter and OpenFeint support\xc2\xa0<br/>- Facebook integration\xc2\xa0<br/>- Retina support<br/>- 4 absolutely new, cool and amazing features: <br/>* Repairmen. Now towers could be repaired without your assistance! <br/>* Resurrection. Revive the ruined tower, take part in the battle again! <br/>* Squashing. Help your army, join the battle. Squash enemy with your finger! <br/>* Protective barrage. Defend your base. Crush enemy by blast wave! <br/><br/>In the up-coming updates you will get new worlds, new toy soldiers and new weapons upgrades.\xc2\xa0<br/><br/>Be the first to discover all the innovations:\xc2\xa0<br/>http://www.Melesta-Games.com\xc2\xa0<br/>http://www.facebook.com/ToyDefense\xc2\xa0<br/>http://www.twitter.com/MelestaGames</p>'
p4
sS'appid'
p5
S'503853677'
p6
s.