(dp0
S'title'
p1
VKick the Boss
p2
sS'description'
p3
S"<p>Beat up your boss with this game! We know how stupid and mean they can be. Stand up for yourself, give them what they deserve. Bazooka right in the face! You can punch, burn, stab, slap, egg them and much more!!<br/> <br/>The game: $0.99\xe2\x80\xa6 Your boss' ugly beaten face: priceless.<br/><br/>Features<br/>  \xe2\x9c\xaa    Best stress-relief game<br/>  \xe2\x9c\xaa    80+ upgradable weapons (More Coming!)<br/>  \xe2\x9c\xaa    5 characters with hilarious expressions<br/>  \xe2\x9c\xaa    6 backgrounds<br/>  \xe2\x9c\xaa    Secret combos<br/>  \xe2\x9c\xaa    Fully physics simulated<br/><br/>Facebook/KickTheBoss<br/>Twitter @GameHive<br/><br/>Let us know on Facebook &amp; Twitter if you enjoy this game being free!</p>"
p4
sS'appid'
p5
S'504656060'
p6
s.