(dp0
S'title'
p1
VClear Vision (12+)
p2
sS'description'
p3
S'<p>17+ Uncut Version also available!<br/>Minimum requirements: <br/>iPhone 3GS, iPod touch 3rd generation, iPad <br/><br/>\xe2\x80\xa2NO MERCY <br/>Tyler is an ordinary guy whose patience gets pushed too far. After getting fired as a supermarket cleaner he begins a violent career as a professional hitman. This, however, is also the beginning of social decline, false friends and a spiral of deception. Watch out! You can\xc2\xb4t trust anyone\xe2\x80\xa6 <br/><br/>\xe2\x80\xa2 AIM AND SHOOT! <br/>Grab your rifle and make sure to hit with the first bullet. <br/><br/>Feature Overview: <br/><br/>\xe2\x9c\x93 Animated Cut Scenes <br/>\xe2\x9c\x93 Blood and Gore Animation (censored)<br/>\xe2\x9c\x93 Daily Newspaper <br/>\xe2\x9c\x93 Retina Display Support <br/>\xe2\x9c\x93 Wind and Distance Calculation <br/>\xe2\x9c\x93 Underground Boxing (censored)<br/>\xe2\x9c\x93 Based on \xe2\x80\x9cClear Vision\xe2\x80\x9d Flash Game<br/><br/>Visit us on Facebook<br/>http://www.facebook.com/FDGEntertainment<br/>http://www.facebook.com/ClearVisionOfficial</p>'
p4
sS'appid'
p5
S'508021929'
p6
s.