(dp0
S'title'
p1
VBike Race Free by Top Free Games
p2
sS'description'
p3
S'<p>Drive your bike through amazing tracks with jumps and loops in this simple and fast-paced physics-based game. <br/>Multiplayer! You can challenge your Facebook friends! <br/><br/>Tilt your device to lean your bike and touch the screen to accelerate/brake. <br/><br/>Features: <br/>- Single and multiplayer modes<br/>- Simple controls <br/>- Earn stars to unlock new levels <br/>- 6 addictive worlds <br/>- 48 challenging tracks <br/>- Touch to accelerate, tilt to lean the bike <br/><br/>By the creators of the #1 game in the app store Racing Penguin<br/>Free for a limited time!</p>'
p4
sS'appid'
p5
S'510461758'
p6
s.