(dp0
S'title'
p1
VSlots by Zynga
p2
sS'description'
p3
S"<p>Brand new from the makers of the #1-rated Zynga Poker comes Zynga Slots, a one-of-a-kind video slots game!<br/><br/>Spin the reels to win coins and dash across a variety of different exciting and magical worlds. Join hot jackpots with your friends, then get lucky and grab the cash before they do!<br/><br/>- Spin up to 40 LINES at a time!<br/>- Earn UPGRADES on your favorite machines for more lines and bets!<br/>- Grab FREE COINS every few minutes, and even more when your friends win!<br/><br/>Catch the fever! Play now and experience a new spin on slots!<br/><br/>\xe2\x98\x85 \xe2\x98\x85 \xe2\x98\x85 \xe2\x98\x85 \xe2\x98\x85 \xe2\x98\x85 \xe2\x98\x85 \xe2\x98\x85 \xe2\x98\x85 \xe2\x98\x85 \xe2\x98\x85 \xe2\x98\x85 \xe2\x98\x85 \xe2\x98\x85 \xe2\x98\x85 \xe2\x98\x85 \xe2\x98\x85 \xe2\x98\x85 \xe2\x98\x85 \xe2\x98\x85 \xe2\x98\x85 <br/>Use of this application is governed by the Zynga Terms of Service. Collection and use of personal data are subject to Zynga's Privacy Policy. Both policies areavailable in the Application License Agreement below as well as at www.zynga.com. Social Networking Service terms may also apply.</p>"
p4
sS'appid'
p5
S'510782087'
p6
s.