(dp0
S'title'
p1
VMatching With Friends Free
p2
sS'description'
p3
S"<p>From the makers of Words With Friends and Hanging With Friends comes Matching With Friends, a colorful, bouncy, and explosively fun puzzle game that will keep you and your friends entertained for hours. <br/><br/>The game starts simple enough: just line up 3 or more jelly blocks to make a match. But can you score more points than your friend?<br/><br/>Fun stuff inside:<br/>\xe2\x80\xa2 Get bonus points from multiplier spots and color bonuses<br/>\xe2\x80\xa2 Swap pieces for better ones to make that perfect match<br/>\xe2\x80\xa2 Drop a bomb on the board to make room for more matches<br/>\xe2\x80\xa2 Earn or buy coins to get more bombs and swaps<br/><br/>Served up With Friends style:<br/>\xe2\x80\xa2 Take turns making moves with friends in up to 20 simultaneous games<br/>\xe2\x80\xa2 'Match' up with a random opponent if all your friends are busy<br/>\xe2\x80\xa2 Keep in touch or trash talk with chat bubbles<br/>\xe2\x80\xa2 Get notifications when it's your turn to play<br/><br/>_________________________________________<br/><br/><br/>Use of this application requires a Facebook or Games With Friends account.<br/><br/>Use of this application is governed by the Zynga Terms of Service. Collection and use of personal data are subject to Zynga's Privacy Policy. Both policies are available in the Application License Agreement below as well as at www.zynga.com. Social Networking Service terms may also apply.</p>"
p4
sS'appid'
p5
S'516725417'
p6
s.