(dp0
S'title'
p1
VSongPop Free
p2
sS'description'
p3
S'<p>Are you ready to rock? Guess song clips, then send challenges to your friends! Prove that you\'re a true music master with SongPop, the FREE addictive music app that gets people grooving!<br/><br/><br/>Play with songs by your favorite artists, explore new genres, and rediscover nostalgic classics with our fun quizzes! <br/><br/>SongPop is a worldwide hit!<br/><br/>We\xe2\x80\x99re a top-rated social mobile app:<br/>- #1 in the US<br/>- #1 in Brazil<br/>- #1 in the UK<br/>- ABC News App of the Week for July 28, 2012.<br/>- Pocket-Lint App of the Day for June 26, 2012.<br/><br/>Take it from the man himself, Facebook CEO Mark Zuckerberg, who raves "SongPop is one of the most fun Facebook games I\'ve played in a while."  <br/><br/>It\xe2\x80\x99s easy to get started. Just connect with Facebook to find and play with friends, or play with music-loving strangers!<br/><br/><br/>------&gt; Game Features! \xe2\x99\xaa From Today\'s Hits to Classic Rock, start with 6 basic playlists - there\'s something for everyone! <br/>\xe2\x99\xaa Play with thousands of songs from the Golden Oldies to today! <br/>\xe2\x99\xaa Invite your friends to quick challenges and see who has the best music memory! <br/>\xe2\x99\xaa Unlock new playlists featuring more genres, more artists, and special song collections! <br/>\xe2\x99\xaa Chat with your friends while playing, with our new Chat system!</p>'
p4
sS'appid'
p5
S'518042655'
p6
s.