(dp0
S'title'
p1
VPlague Inc.
p2
sS'description'
p3
S"<p>\xe2\x98\x85\xe2\x98\x85\xe2\x98\x85\xe2\x98\x85\xe2\x98\x85 #1 top iPhone and iPad game globally with 13 million+ games played \xe2\x98\x85\xe2\x98\x85\xe2\x98\x85\xe2\x98\x85\xe2\x98\x85 <br/>Plague Inc. is a unique mix of high strategy and terrifyingly realistic simulation. Can you infect the world? <br/>Your pathogen has just infected 'Patient Zero'. Now you must bring about the end of human history by evolving a deadly, global Plague whilst adapting against everything humanity can do to defend itself. <br/><br/>Brilliantly executed with innovative gameplay and built from the ground up for the iPhone &amp; iPad, Plague Inc. evolves the strategy genre and pushes mobile gaming (and you) to new levels. It\xe2\x80\x99s You vs. the world - only the strongest can survive! <br/><br/>****<br/><br/>Plague Inc. is a global hit with over 66 thousand 5 star ratings on the App Store and features in newspapers such as The Economist, New York Post, Boston Herald, The Guardian and London Metro!<br/><br/>\xe2\x96\xb6 \xe2\x80\x9cPlague Inc will snag your attention in all the right ways and keep it there\xe2\x80\x9d  - Touch Arcade <br/>\xe2\x96\xb6 \xe2\x80\x9cNo denying Plague Inc.'s high-level of quality\xe2\x80\x9d - Modojo<br/>\xe2\x96\xb6 \xe2\x80\x9cPlague Inc. should not be as much fun as it is\xe2\x80\x9d \xe2\x80\x93 London Metro <br/>\xe2\x96\xb6 \xe2\x80\x9cWill leave you hoping to destroy the world, all in the name of a bit of fun\xe2\x80\x9d \xe2\x80\x93 Pocket Lint <br/>\xe2\x96\xb6 \xe2\x80\x9cPlague Inc will bring out the evil side of any gamer with its goal of creating a super virus capable of wiping out the entire human population\xe2\x80\x9d \xe2\x80\x93 G4tv <br/>\xe2\x96\xb6 \xe2\x80\x9cPlague Inc.'s gameplay is infectious\xe2\x80\x9d - Slide to Play <br/>\xe2\x96\xb6 \xe2\x80\x9cKilling billions has never been so fun\xe2\x80\x9d \xe2\x80\x93 IGN <br/><br/>****<br/><br/>Features: <br/>\xe2\x9c\x93 Stunning retina graphics with a highly polished interface (Contagion guaranteed) <br/>\xe2\x9c\x93 Highly detailed, hyper-realistic world with advanced AI (Outbreak management) <br/>\xe2\x9c\x93 Comprehensive in-game help and tutorial system (I am Legendarily helpful) <br/>\xe2\x9c\x93 11 different disease types with radically different strategies to master (11 Monkeys?) <br/>\xe2\x9c\x93 Full Save/Load functionality (28 Saves Later!) <br/>\xe2\x9c\x93 50+ countries to infect, hundreds of traits to evolve, thousands of world events to adapt to (Pandemic evolved) <br/>\xe2\x9c\x93 Game support for scoreboards and achievements <br/><br/>Compatible with iPad (all), iPhone 3GS, 4, 4S, iPod touch (3rd &amp; 4th). Requires iOS 4.3 or later. Localised in English. <br/><br/>P.S. Give yourself a pat on the back if you got all the themed literature references! <br/><br/>\xe2\x98\x85\xe2\x98\x85Special sale price to celebrate 1.3 million downloads!\xe2\x98\x85\xe2\x98\x85<br/><br/>****<br/><br/>We are currently hard at work on Mutation (update) 4 which will add the ability to customise your genetic code . The much requested zombie Plague Type will be in update 5<br/><br/>Become a fan on Facebook:<br/>http://www.facebook.com/Ndemic.Creations<br/>Follow me on Twitter:<br/>http://twitter.com/#!/NdemicCreations</p>"
p4
sS'appid'
p5
S'525818839'
p6
s.