(dp0
S'title'
p1
V9 Innings: 2013 Pro Baseball
p2
sS'description'
p3
S"<p>\xe2\x98\x85The latest roaster up until August 28th will be in effect starting with v1.0.3. It includes 60 new player cards, 30 new monster cards and reflects upon transfers of 90 players. Enjoy the newest 9 Innings 2013!\xe2\x98\x85 <br/><br/>The Number ONE Baseball simulation available on iOS devices! Officially licensed with the Major League Baseball Players Association (MLBPA)!<br/><br/>Uses 1,400 real players from your favorite teams!<br/><br/>9 Innings: 2013 Pro Baseball is the most realistic baseball simulation presented by one of the global leaders in mobile games, Com2uS!<br/><br/>NOTICE<br/><br/>\xe2\x98\x85This game is free\xe2\x98\x85<br/>There are no differences between the free and subscribed version except for ads. Players who wants to enjoy 9 Innings: 2013 Pro Baseball with no ADs and 500 STARS (approximately $4.99 value) bonus can download 9 Innings: 2013 Pro Baseball PLUS from the iTunes App Store!<br/><br/>9 Innings: 2013 Pro Baseball, the best baseball game for mobile, and across all platforms, has finally come to iOS. The only game that uses the names, photos, data, and league schedule of real baseball players!<br/><br/>Com2uS\xe2\x80\x99s card system, with dynamic, realistic graphics will blow you away. The optimized controls were made specifically for your iOS devices to get the most out of them.<br/><br/>ENJOY the greatest baseball sim-game ever created TODAY! <br/><br/>\xe2\x98\x85Supports: English, \xed\x95\x9c\xea\xb5\xad\xec\x96\xb4, \xe6\x97\xa5\xe6\x9c\xac\xe8\xaa\x9e, \xe4\xb8\xad\xe6\x96\x87\xe7\xae\x80\xe4\xbd\x93, \xe4\xb8\xad\xe6\x96\x87\xe7\xb9\x81\xe9\xab\x94.<br/><br/>FEATURES<br/><br/>Official licensing contract with Major League Baseball Players Association (MLBPA)!<br/>--Uses 1,400 REAL players on different 30 teams<br/>--Provides latest player data and constant roaster updates!<br/>--Standard player and Monster Season players!<br/>--You can control them only in 9 Innings: 2013 Pro Baseball!<br/><br/>Card development system created by Com2uS is based on years of experience!<br/>--More varieties in player/cheerleader/equipment cards and draw/combination enhances the system!<br/>--The completion of the card system will keep you going endlessly. Trading cards is easy between players through the network-exchange market.<br/>--You can exchange cards and points with friends through the in-game inbox. <br/><br/>Easy, fast, and realistic!<br/>--Real graphics, smooth motion and an outstanding game engine!<br/>--Quick gameplay through autoplay (supports attack and defense only)<br/>--Play against 16 teams through friendly, league, home run derby and special modes!<br/>--Carry out 100 challenges and go for card and point rewards!<br/>--Rookie players can quickly adapt to the game through tutorial.<br/><br/>\xe2\x98\x85 If you are using an illegal OS, you cannot use the Card Market or the Store.<br/><br/>PRESS WEIGHS IN!<br/>9 Innings: 2013 Pro Baseball is on Android Quality Index's Top 10 games list of July 2012!<br/><br/>\xe2\x94\x80\xe2\x94\x80\xe2\x94\x80\xe2\x94\x80\xe2\x94\x80\xe2\x94\x80\xe2\x94\x80\xe2\x94\x80\xe2\x94\x80<br/>COM2US GAMES <br/>\xe2\x94\x80\xe2\x94\x80\xe2\x94\x80\xe2\x94\x80\xe2\x94\x80\xe2\x94\x80\xe2\x94\x80\xe2\x94\x80\xe2\x94\x80<br/>- Tiny Farm\xc2\xae<br/>- Derby Days<br/>- 9 Innings: 2013 Pro Baseball<br/>- Homerun Battle 2<br/>- Swing Shot<br/>- IMO: The World of Magic<br/>- Magic Tree by Com2uS<br/>- Super Action Hero<br/>- Slice it!<br/>- Tower Defense\xc2\xae<br/>- Inotia 4<br/><br/>\xe2\x94\x80\xe2\x94\x80\xe2\x94\x80\xe2\x94\x80\xe2\x94\x80\xe2\x94\x80\xe2\x94\x80\xe2\x94\x80\xe2\x94\x80<br/>ABOUT COM2US<br/>\xe2\x94\x80\xe2\x94\x80\xe2\x94\x80\xe2\x94\x80\xe2\x94\x80\xe2\x94\x80\xe2\x94\x80\xe2\x94\x80\xe2\x94\x80<br/>Follow us!<br/>twitter.com/Com2uS<br/><br/>Join Com2uS' Fan Page<br/>facebook.com/Com2uS<br/><br/>Tips and Updates<br/>com2us.com</p>"
p4
sS'appid'
p5
S'530061728'
p6
s.