(dp0
S'title'
p1
VInstaCollage Pro - Pic Frame & Pic Caption for Instagram FREE
p2
sS'description'
p3
S'<p>FREE FOR A VERY LIMITED TIME!<br/>DOWNLOAD NOW BEFORE THE PRICE GOES UP!<br/><br/>\xe2\x98\x86\xe2\x98\x86\xe2\x98\x86\xe2\x98\x86\xe2\x98\x86<br/>Over 10 million users love InstaCollage<br/>\xe2\x98\x86\xe2\x98\x86\xe2\x98\x86\xe2\x98\x86\xe2\x98\x86<br/><br/>\xe2\x98\x85 \xe2\x98\x85 \xe2\x98\x85 \xe2\x98\x85 \xe2\x98\x85\xe2\x98\x85<br/>#1 Entertainment app in US App store<br/>#1 Entertainment app in 75+ App store<br/>#10 Overall app in 25+ App store<br/>\xe2\x98\x85 \xe2\x98\x85 \xe2\x98\x85 \xe2\x98\x85 \xe2\x98\x85\xe2\x98\x85<br/><br/>Now,  tell your story via amazing looking PHOTOS ,FRAMES and UNIQUE COLLAGES with caption!<br/><br/>InstaCollage helps you combine multiple sized photos into one beautifully framed picture &amp; unique collage with caption  in seconds and share your masterpiece to Instagram,Facebook, Twitter and Flickr very easily!<br/><br/>Main features:<br/>- 17 very cool irregular frame layouts for collage! Unique! <br/>- 46 popular regular frame layouts <br/>- 38 well designed borders <br/>- Change the border width <br/>- Change border\'s color (with it you can make endless colorful borders) <br/>- 18 cool photo effects <br/>- Easy to navigate your recent used frame layout by Sorting layouts feature<br/><br/>- Add texts easily and quickly  <br/>- 40 fonts <br/>- Shadow text <br/>- Change text color, font ,size <br/>- Change text background color <br/>- Move,resize and rotate the text <br/>- Auto layout word/caption around framed photo <br/>- Add stick easily and quickly<br/>- 90 cool stickers to choose from <br/><br/>- Edit photo via a cool built-in photo editor <br/>- Double tap picture to show photo edit menu <br/>- Zoom in grid to pan,pinch,rotate photo<br/>- Zoom, pan, rotate or mirror each photo <br/>- Easily move photos to different areas by drag and drop <br/>- Apply effects to individual photo <br/>- Rounded corners on photos <br/>- Shadow each photo <br/>- Shake to clear all photos,stickers,texts <br/><br/>- Import photo from Camera Roll Album <br/>- Import photo from Camera by double tap on empty grid<br/>- Import photo from Camera by tap "Camera" button on photo edit menu<br/><br/>- Sharing via Instagram <br/>- Sharing via Facebook, Twitter, Flickr, Email <br/>- Save to Camera Roll album<br/><br/>NOTE: <br/>Tap "Save" button to save photo to Camera Roll album.<br/><br/>Any feedback,suggestion will be welcome. You can contact us at: click2mobile_dev@yahoo.com<br/>If you enjoy using our app, your great rate and review will be appreciated! And invite your friends to play with InstaCollage!!<br/>Thanks for your support!</p>'
p4
sS'appid'
p5
S'530957474'
p6
s.