(dp0
S'title'
p1
VGUN ZOMBIE : HELL GATE
p2
sS'description'
p3
S'<p>\xe2\x98\x85 New Zombie Character \xe2\x98\x85<br/>\xe2\x98\x85 AN-94 available at a shop \xe2\x98\x85<br/>\xe2\x98\x85 Shake to Reload \xe2\x98\x85<br/><br/>\xe2\x98\x85 Get FREE items worth even $3.3 \xe2\x98\x85<br/>Gift Item: 11 Grenades + 11 Bullet Time + 3,000 GP<br/><br/>\xe2\x98\x9e Thrilled Zombie Rush &amp; Hack and Slash style FPS<br/>\xe2\x98\x9e 500+ Mission Modes &amp; 23 Realistic Guns<br/>\xe2\x98\x9e Optimized Interface for touch-based device<br/><br/>You can enjoy zombie shooting at 500+ mission modes &amp; 60 boss battles with upgrading guns and various items, and also shooting simulation and customizing. <br/><br/>[Features]<br/>- The New \xe2\x80\x98HELLGATE\xe2\x80\x99, Endless zombie-rush<br/>- Various mission &amp; boss modes &amp; Hellwave by gun type<br/>- World &amp; Individual Ranking<br/>- 23 Realistic Guns and simulator<br/>- 15+ diverse zombie types<br/>- Upgrade &amp; Customization of each guns<br/>- World &amp; Individual Ranking<br/><br/>[Language]<br/>- English, Japanese, Korean, Chinese(Simplified/Traditional), German, French, Spanish, Portuguese, Russian<br/><br/>[23 Realistic Guns]<br/>- Assault rifle: AK47, AK74, M16A4, M16A4 M320, M4A1, AUG, SCAR-H Foregrip, G36C, P90, BAR <br/>- Battle rifle: M14EBR, G3A4<br/>- Shot gun: M1014, SPAS-12, Keltec KSG<br/>- Sub machine gun: Mini-Uzi, RPD, MP5, Thompson <br/>- Pistol: G18, M1911, Desert Eagle <br/><br/><br/><br/>\xe2\x99\xa5\xe2\x99\xa5 FACEBOOK &amp; Twitter \xe2\x99\xa5\xe2\x99\xa5<br/>- Enable to post up your guns or Hell gate score on Facebook and Twitter<br/>http://www.facebook.com/pages/Gun-Zombie-Hell-Gate/453125451382114<br/>https://twitter.com/#!/pnixgames<br/><br/>&gt; Support: above iPhone 3GS</p>'
p4
sS'appid'
p5
S'532464789'
p6
s.