(dp0
S'title'
p1
VBubble Mania\u2122
p2
sS'description'
p3
S'<p>"Bubble Mania is an extremely addictive game that any mobile user should have in their library of apps." -Gameteep.net<br/><br/>"The most polished bubble popper to date." -Gamezebo<br/><br/><br/>The best bubble puzzle adventure game! Defeat the Evil Bubble Wizard and rescue baby critters!<br/><br/>Throw bubbles and match colors to pop and drop your way to victory!<br/><br/>\xe2\x98\x85 60+ levels of Challenging Puzzles!<br/>\xe2\x98\x85 Adventure across a stunning world. Throw bubbles in sparkly swamps, amazing airships, and chocolate covered islands!<br/>\xe2\x98\x85 Score Big Bonuses - beat your friends\xe2\x80\x99 scores!<br/>\xe2\x98\x85 Power Up with Rainbow and Bomb Bubbles!<br/>\xe2\x98\x85 Master tricky obstacles like the explosive Lightning Bubble!<br/>\xe2\x98\x85 You\xe2\x80\x99ll love the Exciting Animations and playful music!<br/>\xe2\x98\x85 FREE updates with new puzzles and powers!<br/>\xe2\x98\x85 Two control methods - pick the one that works best for you!<br/><br/><br/>Top notch performance and unparalleled precision on your iPhone, iPad, or iPod Touch.<br/><br/>Please note: Your device must have an active internet connection to download additional levels.</p>'
p4
sS'appid'
p5
S'534342529'
p6
s.